	.section	__TEXT,__text,regular,pure_instructions
	.build_version macos, 10, 14	sdk_version 10, 14
	.file	1 "/Users/theodorebendixson1/AppDevelopment/Personal Projects/Handmade Game Tutorials OSX/Day7/build" "../handmade/code/osx_main.mm"
	.file	2 "/Users/theodorebendixson1/AppDevelopment/Personal Projects/Handmade Game Tutorials OSX/Day7/build" "/Applications/Xcode.app/Contents/Developer/Platforms/MacOSX.platform/Developer/SDKs/MacOSX10.14.sdk/usr/include/_types/_uint8_t.h"
	.file	3 "/Users/theodorebendixson1/AppDevelopment/Personal Projects/Handmade Game Tutorials OSX/Day7/build" "/Applications/Xcode.app/Contents/Developer/Platforms/MacOSX.platform/Developer/SDKs/MacOSX10.14.sdk/System/Library/Frameworks/Security.framework/Headers/cssmconfig.h"
	.file	4 "/Users/theodorebendixson1/AppDevelopment/Personal Projects/Handmade Game Tutorials OSX/Day7/build" "/Applications/Xcode.app/Contents/Developer/Platforms/MacOSX.platform/Developer/SDKs/MacOSX10.14.sdk/usr/include/MacTypes.h"
	.file	5 "/Users/theodorebendixson1/AppDevelopment/Personal Projects/Handmade Game Tutorials OSX/Day7/build" "/Applications/Xcode.app/Contents/Developer/Platforms/MacOSX.platform/Developer/SDKs/MacOSX10.14.sdk/System/Library/Frameworks/AppKit.framework/Headers/NSWindow.h"
	.file	6 "/Users/theodorebendixson1/AppDevelopment/Personal Projects/Handmade Game Tutorials OSX/Day7/build" "/Applications/Xcode.app/Contents/Developer/Platforms/MacOSX.platform/Developer/SDKs/MacOSX10.14.sdk/System/Library/Frameworks/AppKit.framework/Headers/NSGraphics.h"
	.file	7 "/Users/theodorebendixson1/AppDevelopment/Personal Projects/Handmade Game Tutorials OSX/Day7/build" "../handmade/code/osx_handmade_controllers.h"
	.file	8 "/Users/theodorebendixson1/AppDevelopment/Personal Projects/Handmade Game Tutorials OSX/Day7/build" "/Applications/Xcode.app/Contents/Developer/Platforms/MacOSX.platform/Developer/SDKs/MacOSX10.14.sdk/System/Library/Frameworks/AppKit.framework/Headers/NSEvent.h"
	.file	9 "/Users/theodorebendixson1/AppDevelopment/Personal Projects/Handmade Game Tutorials OSX/Day7/build" "/Applications/Xcode.app/Contents/Developer/Platforms/MacOSX.platform/Developer/SDKs/MacOSX10.14.sdk/usr/include/sys/_types/_int16_t.h"
	.file	10 "/Users/theodorebendixson1/AppDevelopment/Personal Projects/Handmade Game Tutorials OSX/Day7/build" "../handmade/code/handmade_types.h"
	.file	11 "/Users/theodorebendixson1/AppDevelopment/Personal Projects/Handmade Game Tutorials OSX/Day7/build" "/Applications/Xcode.app/Contents/Developer/Platforms/MacOSX.platform/Developer/SDKs/MacOSX10.14.sdk/usr/include/_types/_uint32_t.h"
	.file	12 "/Users/theodorebendixson1/AppDevelopment/Personal Projects/Handmade Game Tutorials OSX/Day7/build" "/Applications/Xcode.app/Contents/Developer/Platforms/MacOSX.platform/Developer/SDKs/MacOSX10.14.sdk/System/Library/Frameworks/CoreAudio.framework/Headers/CoreAudioTypes.h"
	.file	13 "/Users/theodorebendixson1/AppDevelopment/Personal Projects/Handmade Game Tutorials OSX/Day7/build" "/Applications/Xcode.app/Contents/Developer/Platforms/MacOSX.platform/Developer/SDKs/MacOSX10.14.sdk/System/Library/Frameworks/CoreServices.framework/Frameworks/CarbonCore.framework/Headers/Components.h"
	.file	14 "/Users/theodorebendixson1/AppDevelopment/Personal Projects/Handmade Game Tutorials OSX/Day7/build" "/Applications/Xcode.app/Contents/Developer/Platforms/MacOSX.platform/Developer/SDKs/MacOSX10.14.sdk/System/Library/Frameworks/AudioToolbox.framework/Headers/AudioComponent.h"
	.file	15 "/Users/theodorebendixson1/AppDevelopment/Personal Projects/Handmade Game Tutorials OSX/Day7/build" "/Applications/Xcode.app/Contents/Developer/Platforms/MacOSX.platform/Developer/SDKs/MacOSX10.14.sdk/System/Library/Frameworks/AudioToolbox.framework/Headers/AUComponent.h"
	.file	16 "/Users/theodorebendixson1/AppDevelopment/Personal Projects/Handmade Game Tutorials OSX/Day7/build" "/Applications/Xcode.app/Contents/Developer/Toolchains/XcodeDefault.xctoolchain/usr/lib/clang/10.0.1/include/stddef.h"
	.file	17 "/Users/theodorebendixson1/AppDevelopment/Personal Projects/Handmade Game Tutorials OSX/Day7/build" "/Applications/Xcode.app/Contents/Developer/Toolchains/XcodeDefault.xctoolchain/usr/include/c++/v1/cstddef"
	.file	18 "/Users/theodorebendixson1/AppDevelopment/Personal Projects/Handmade Game Tutorials OSX/Day7/build" "/Applications/Xcode.app/Contents/Developer/Platforms/MacOSX.platform/Developer/SDKs/MacOSX10.14.sdk/usr/include/i386/_types.h"
	.file	19 "/Users/theodorebendixson1/AppDevelopment/Personal Projects/Handmade Game Tutorials OSX/Day7/build" "/Applications/Xcode.app/Contents/Developer/Platforms/MacOSX.platform/Developer/SDKs/MacOSX10.14.sdk/usr/include/sys/_types/_size_t.h"
	.file	20 "/Users/theodorebendixson1/AppDevelopment/Personal Projects/Handmade Game Tutorials OSX/Day7/build" "/Applications/Xcode.app/Contents/Developer/Toolchains/XcodeDefault.xctoolchain/usr/include/c++/v1/__nullptr"
	.file	21 "/Users/theodorebendixson1/AppDevelopment/Personal Projects/Handmade Game Tutorials OSX/Day7/build" "/Applications/Xcode.app/Contents/Developer/Toolchains/XcodeDefault.xctoolchain/usr/include/c++/v1/stddef.h"
	.globl	__Z18macOSRefreshBufferP8NSWindow ## -- Begin function _Z18macOSRefreshBufferP8NSWindow
	.p2align	4, 0x90
__Z18macOSRefreshBufferP8NSWindow:      ## @_Z18macOSRefreshBufferP8NSWindow
Lfunc_begin0:
	.loc	1 30 0                  ## ../handmade/code/osx_main.mm:30:0
	.cfi_startproc
## %bb.0:
	pushq	%rbp
	.cfi_def_cfa_offset 16
	.cfi_offset %rbp, -16
	movq	%rsp, %rbp
	.cfi_def_cfa_register %rbp
	subq	$112, %rsp
	movq	%rdi, -8(%rbp)
Ltmp0:
	.loc	1 32 9 prologue_end     ## ../handmade/code/osx_main.mm:32:9
	cmpq	$0, __ZL6buffer(%rip)
Ltmp1:
	.loc	1 32 9 is_stmt 0        ## ../handmade/code/osx_main.mm:32:9
	je	LBB0_2
## %bb.1:
Ltmp2:
	.loc	1 33 14 is_stmt 1       ## ../handmade/code/osx_main.mm:33:14
	movq	__ZL6buffer(%rip), %rdi
	.loc	1 33 9 is_stmt 0        ## ../handmade/code/osx_main.mm:33:9
	callq	_free
Ltmp3:
LBB0_2:
	.loc	1 36 19 is_stmt 1       ## ../handmade/code/osx_main.mm:36:19
	movq	-8(%rbp), %rax
	.loc	1 36 26 is_stmt 0       ## ../handmade/code/osx_main.mm:36:26
	movq	L_OBJC_SELECTOR_REFERENCES_(%rip), %rsi
	movq	%rax, %rdi
	callq	*_objc_msgSend@GOTPCREL(%rip)
	.loc	1 36 38                 ## ../handmade/code/osx_main.mm:36:38
	movq	L_OBJC_SELECTOR_REFERENCES_.2(%rip), %rdx
	cmpq	$0, %rax
	movq	%rdx, -80(%rbp)         ## 8-byte Spill
	movq	%rax, -88(%rbp)         ## 8-byte Spill
	je	LBB0_4
## %bb.3:
	leaq	-40(%rbp), %rdi
	movq	-88(%rbp), %rsi         ## 8-byte Reload
	movq	-80(%rbp), %rdx         ## 8-byte Reload
	callq	_objc_msgSend_stret
	jmp	LBB0_5
LBB0_4:
	.loc	1 0 38                  ## ../handmade/code/osx_main.mm:0:38
	xorl	%esi, %esi
	movl	$32, %eax
	movl	%eax, %edx
	.loc	1 36 38                 ## ../handmade/code/osx_main.mm:36:38
	leaq	-40(%rbp), %rcx
	movq	%rcx, %rdi
	callq	_memset
LBB0_5:
	.loc	1 36 19                 ## ../handmade/code/osx_main.mm:36:19
	cvttsd2si	-24(%rbp), %eax
	.loc	1 36 17                 ## ../handmade/code/osx_main.mm:36:17
	movl	%eax, __ZL11bitmapWidth(%rip)
	.loc	1 37 20 is_stmt 1       ## ../handmade/code/osx_main.mm:37:20
	movq	-8(%rbp), %rcx
	.loc	1 37 27 is_stmt 0       ## ../handmade/code/osx_main.mm:37:27
	movq	L_OBJC_SELECTOR_REFERENCES_(%rip), %rsi
	movq	%rcx, %rdi
	callq	*_objc_msgSend@GOTPCREL(%rip)
	.loc	1 37 39                 ## ../handmade/code/osx_main.mm:37:39
	movq	L_OBJC_SELECTOR_REFERENCES_.2(%rip), %rdx
	cmpq	$0, %rax
	movq	%rdx, -96(%rbp)         ## 8-byte Spill
	movq	%rax, -104(%rbp)        ## 8-byte Spill
	je	LBB0_7
## %bb.6:
	leaq	-72(%rbp), %rdi
	movq	-104(%rbp), %rsi        ## 8-byte Reload
	movq	-96(%rbp), %rdx         ## 8-byte Reload
	callq	_objc_msgSend_stret
	jmp	LBB0_8
LBB0_7:
	.loc	1 0 39                  ## ../handmade/code/osx_main.mm:0:39
	xorl	%esi, %esi
	movl	$32, %eax
	movl	%eax, %edx
	.loc	1 37 39                 ## ../handmade/code/osx_main.mm:37:39
	leaq	-72(%rbp), %rcx
	movq	%rcx, %rdi
	callq	_memset
LBB0_8:
	.loc	1 37 20                 ## ../handmade/code/osx_main.mm:37:20
	cvttsd2si	-48(%rbp), %eax
	.loc	1 37 18                 ## ../handmade/code/osx_main.mm:37:18
	movl	%eax, __ZL12bitmapHeight(%rip)
	.loc	1 38 13 is_stmt 1       ## ../handmade/code/osx_main.mm:38:13
	movl	__ZL11bitmapWidth(%rip), %eax
	.loc	1 38 25 is_stmt 0       ## ../handmade/code/osx_main.mm:38:25
	imull	__ZL13bytesPerPixel(%rip), %eax
	.loc	1 38 11                 ## ../handmade/code/osx_main.mm:38:11
	movl	%eax, __ZL5pitch(%rip)
	.loc	1 39 30 is_stmt 1       ## ../handmade/code/osx_main.mm:39:30
	movl	__ZL5pitch(%rip), %eax
	.loc	1 39 36 is_stmt 0       ## ../handmade/code/osx_main.mm:39:36
	imull	__ZL12bitmapHeight(%rip), %eax
	.loc	1 39 30                 ## ../handmade/code/osx_main.mm:39:30
	movslq	%eax, %rdi
	.loc	1 39 23                 ## ../handmade/code/osx_main.mm:39:23
	callq	_malloc
	.loc	1 39 12                 ## ../handmade/code/osx_main.mm:39:12
	movq	%rax, __ZL6buffer(%rip)
	.loc	1 40 1 is_stmt 1        ## ../handmade/code/osx_main.mm:40:1
	addq	$112, %rsp
	popq	%rbp
	retq
Ltmp4:
Lfunc_end0:
	.cfi_endproc
                                        ## -- End function
	.globl	__Z19renderWeirdGradientv ## -- Begin function _Z19renderWeirdGradientv
	.p2align	4, 0x90
__Z19renderWeirdGradientv:              ## @_Z19renderWeirdGradientv
Lfunc_begin1:
	.loc	1 42 0                  ## ../handmade/code/osx_main.mm:42:0
	.cfi_startproc
## %bb.0:
	pushq	%rbp
	.cfi_def_cfa_offset 16
	.cfi_offset %rbp, -16
	movq	%rsp, %rbp
	.cfi_def_cfa_register %rbp
Ltmp5:
	.loc	1 44 17 prologue_end    ## ../handmade/code/osx_main.mm:44:17
	movl	__ZL11bitmapWidth(%rip), %eax
	.loc	1 44 9 is_stmt 0        ## ../handmade/code/osx_main.mm:44:9
	movl	%eax, -4(%rbp)
	.loc	1 45 18 is_stmt 1       ## ../handmade/code/osx_main.mm:45:18
	movl	__ZL12bitmapHeight(%rip), %eax
	.loc	1 45 9 is_stmt 0        ## ../handmade/code/osx_main.mm:45:9
	movl	%eax, -8(%rbp)
	.loc	1 47 27 is_stmt 1       ## ../handmade/code/osx_main.mm:47:27
	movq	__ZL6buffer(%rip), %rcx
	.loc	1 47 12 is_stmt 0       ## ../handmade/code/osx_main.mm:47:12
	movq	%rcx, -16(%rbp)
Ltmp6:
	.loc	1 49 15 is_stmt 1       ## ../handmade/code/osx_main.mm:49:15
	movl	$0, -20(%rbp)
LBB1_1:                                 ## =>This Loop Header: Depth=1
                                        ##     Child Loop BB1_3 Depth 2
Ltmp7:
	.loc	1 49 22 is_stmt 0       ## ../handmade/code/osx_main.mm:49:22
	movl	-20(%rbp), %eax
	.loc	1 49 24                 ## ../handmade/code/osx_main.mm:49:24
	cmpl	-8(%rbp), %eax
Ltmp8:
	.loc	1 49 5                  ## ../handmade/code/osx_main.mm:49:5
	jge	LBB1_8
## %bb.2:                               ##   in Loop: Header=BB1_1 Depth=1
Ltmp9:
	.loc	1 51 33 is_stmt 1       ## ../handmade/code/osx_main.mm:51:33
	movq	-16(%rbp), %rax
	.loc	1 51 16 is_stmt 0       ## ../handmade/code/osx_main.mm:51:16
	movq	%rax, -32(%rbp)
Ltmp10:
	.loc	1 53 17 is_stmt 1       ## ../handmade/code/osx_main.mm:53:17
	movl	$0, -36(%rbp)
LBB1_3:                                 ##   Parent Loop BB1_1 Depth=1
                                        ## =>  This Inner Loop Header: Depth=2
Ltmp11:
	.loc	1 53 24 is_stmt 0       ## ../handmade/code/osx_main.mm:53:24
	movl	-36(%rbp), %eax
	.loc	1 53 26                 ## ../handmade/code/osx_main.mm:53:26
	cmpl	-4(%rbp), %eax
Ltmp12:
	.loc	1 53 9                  ## ../handmade/code/osx_main.mm:53:9
	jge	LBB1_6
## %bb.4:                               ##   in Loop: Header=BB1_3 Depth=2
Ltmp13:
	.loc	1 58 14 is_stmt 1       ## ../handmade/code/osx_main.mm:58:14
	movq	-32(%rbp), %rax
	.loc	1 58 20 is_stmt 0       ## ../handmade/code/osx_main.mm:58:20
	movb	$-1, (%rax)
	.loc	1 59 13 is_stmt 1       ## ../handmade/code/osx_main.mm:59:13
	movq	-32(%rbp), %rax
	addq	$1, %rax
	movq	%rax, -32(%rbp)
	.loc	1 62 29                 ## ../handmade/code/osx_main.mm:62:29
	movl	-20(%rbp), %ecx
	movb	%cl, %dl
	.loc	1 62 22 is_stmt 0       ## ../handmade/code/osx_main.mm:62:22
	movzbl	%dl, %ecx
	.loc	1 62 38                 ## ../handmade/code/osx_main.mm:62:38
	movl	__ZL7offsetY(%rip), %esi
	movb	%sil, %dl
	.loc	1 62 31                 ## ../handmade/code/osx_main.mm:62:31
	movzbl	%dl, %esi
	.loc	1 62 30                 ## ../handmade/code/osx_main.mm:62:30
	addl	%esi, %ecx
	.loc	1 62 22                 ## ../handmade/code/osx_main.mm:62:22
	movb	%cl, %dl
	.loc	1 62 14                 ## ../handmade/code/osx_main.mm:62:14
	movq	-32(%rbp), %rax
	.loc	1 62 20                 ## ../handmade/code/osx_main.mm:62:20
	movb	%dl, (%rax)
	.loc	1 63 13 is_stmt 1       ## ../handmade/code/osx_main.mm:63:13
	movq	-32(%rbp), %rax
	addq	$1, %rax
	movq	%rax, -32(%rbp)
	.loc	1 66 29                 ## ../handmade/code/osx_main.mm:66:29
	movl	-36(%rbp), %ecx
	movb	%cl, %dl
	.loc	1 66 22 is_stmt 0       ## ../handmade/code/osx_main.mm:66:22
	movzbl	%dl, %ecx
	.loc	1 66 38                 ## ../handmade/code/osx_main.mm:66:38
	movl	__ZL7offsetX(%rip), %esi
	movb	%sil, %dl
	.loc	1 66 31                 ## ../handmade/code/osx_main.mm:66:31
	movzbl	%dl, %esi
	.loc	1 66 30                 ## ../handmade/code/osx_main.mm:66:30
	addl	%esi, %ecx
	.loc	1 66 22                 ## ../handmade/code/osx_main.mm:66:22
	movb	%cl, %dl
	.loc	1 66 14                 ## ../handmade/code/osx_main.mm:66:14
	movq	-32(%rbp), %rax
	.loc	1 66 20                 ## ../handmade/code/osx_main.mm:66:20
	movb	%dl, (%rax)
	.loc	1 67 13 is_stmt 1       ## ../handmade/code/osx_main.mm:67:13
	movq	-32(%rbp), %rax
	addq	$1, %rax
	movq	%rax, -32(%rbp)
	.loc	1 70 14                 ## ../handmade/code/osx_main.mm:70:14
	movq	-32(%rbp), %rax
	.loc	1 70 20 is_stmt 0       ## ../handmade/code/osx_main.mm:70:20
	movb	$-1, (%rax)
	.loc	1 71 13 is_stmt 1       ## ../handmade/code/osx_main.mm:71:13
	movq	-32(%rbp), %rax
	addq	$1, %rax
	movq	%rax, -32(%rbp)
Ltmp14:
## %bb.5:                               ##   in Loop: Header=BB1_3 Depth=2
	.loc	1 53 35                 ## ../handmade/code/osx_main.mm:53:35
	movl	-36(%rbp), %eax
	addl	$1, %eax
	movl	%eax, -36(%rbp)
	.loc	1 53 9 is_stmt 0        ## ../handmade/code/osx_main.mm:53:9
	jmp	LBB1_3
Ltmp15:
LBB1_6:                                 ##   in Loop: Header=BB1_1 Depth=1
	.loc	1 74 16 is_stmt 1       ## ../handmade/code/osx_main.mm:74:16
	movl	__ZL5pitch(%rip), %eax
	.loc	1 74 13 is_stmt 0       ## ../handmade/code/osx_main.mm:74:13
	movq	-16(%rbp), %rcx
	movslq	%eax, %rdx
	addq	%rdx, %rcx
	movq	%rcx, -16(%rbp)
Ltmp16:
## %bb.7:                               ##   in Loop: Header=BB1_1 Depth=1
	.loc	1 49 34 is_stmt 1       ## ../handmade/code/osx_main.mm:49:34
	movl	-20(%rbp), %eax
	addl	$1, %eax
	movl	%eax, -20(%rbp)
	.loc	1 49 5 is_stmt 0        ## ../handmade/code/osx_main.mm:49:5
	jmp	LBB1_1
Ltmp17:
LBB1_8:
	.loc	1 77 1 is_stmt 1        ## ../handmade/code/osx_main.mm:77:1
	popq	%rbp
	retq
Ltmp18:
Lfunc_end1:
	.cfi_endproc
                                        ## -- End function
	.globl	__Z17macOSRedrawBufferP8NSWindow ## -- Begin function _Z17macOSRedrawBufferP8NSWindow
	.p2align	4, 0x90
__Z17macOSRedrawBufferP8NSWindow:       ## @_Z17macOSRedrawBufferP8NSWindow
Lfunc_begin2:
	.loc	1 79 0                  ## ../handmade/code/osx_main.mm:79:0
	.cfi_startproc
## %bb.0:
	pushq	%rbp
	.cfi_def_cfa_offset 16
	.cfi_offset %rbp, -16
	movq	%rsp, %rbp
	.cfi_def_cfa_register %rbp
	pushq	%rbx
	subq	$168, %rsp
	.cfi_offset %rbx, -24
	movq	%rdi, -48(%rbp)
Ltmp19:
	.loc	1 80 22 prologue_end    ## ../handmade/code/osx_main.mm:80:22
	callq	_objc_autoreleasePoolPush
Ltmp20:
	.loc	1 81 35                 ## ../handmade/code/osx_main.mm:81:35
	movq	L_OBJC_CLASSLIST_REFERENCES_$_(%rip), %rdi
	movq	L_OBJC_SELECTOR_REFERENCES_.4(%rip), %rsi
	movq	_objc_msgSend@GOTPCREL(%rip), %rcx
	movq	%rax, -104(%rbp)        ## 8-byte Spill
	movq	%rcx, -112(%rbp)        ## 8-byte Spill
	callq	*%rcx
	.loc	1 82 47                 ## ../handmade/code/osx_main.mm:82:47
	movslq	__ZL11bitmapWidth(%rip), %rcx
	.loc	1 83 47                 ## ../handmade/code/osx_main.mm:83:47
	movslq	__ZL12bitmapHeight(%rip), %r8
	.loc	1 88 51                 ## ../handmade/code/osx_main.mm:88:51
	movq	_NSDeviceRGBColorSpace@GOTPCREL(%rip), %rsi
	movq	(%rsi), %rsi
	.loc	1 89 48                 ## ../handmade/code/osx_main.mm:89:48
	movslq	__ZL5pitch(%rip), %rdi
	.loc	1 90 49                 ## ../handmade/code/osx_main.mm:90:49
	movl	__ZL13bytesPerPixel(%rip), %edx
	.loc	1 90 63 is_stmt 0       ## ../handmade/code/osx_main.mm:90:63
	shll	$3, %edx
	.loc	1 90 49                 ## ../handmade/code/osx_main.mm:90:49
	movslq	%edx, %r9
	.loc	1 81 34 is_stmt 1       ## ../handmade/code/osx_main.mm:81:34
	movq	L_OBJC_SELECTOR_REFERENCES_.6(%rip), %r10
	movq	%rsp, %r11
	movq	%r9, 40(%r11)
	movq	%rdi, 32(%r11)
	movq	%rsi, 24(%r11)
	movl	$0, 16(%r11)
	movl	$1, 8(%r11)
	movq	$4, (%r11)
	leaq	__ZL6buffer(%rip), %rdx
	movl	$8, %ebx
	movl	%ebx, %r9d
	movq	%rax, %rdi
	movq	%r10, %rsi
	movq	-112(%rbp), %rax        ## 8-byte Reload
	callq	*%rax
	.loc	1 81 33 is_stmt 0       ## ../handmade/code/osx_main.mm:81:33
	movq	L_OBJC_SELECTOR_REFERENCES_.8(%rip), %rsi
	movq	%rax, %rdi
	movq	-112(%rbp), %rax        ## 8-byte Reload
	callq	*%rax
	.loc	1 81 27                 ## ../handmade/code/osx_main.mm:81:27
	movq	%rax, -56(%rbp)
	.loc	1 92 39 is_stmt 1       ## ../handmade/code/osx_main.mm:92:39
	cvtsi2sdl	__ZL11bitmapWidth(%rip), %xmm0
	.loc	1 92 52 is_stmt 0       ## ../handmade/code/osx_main.mm:92:52
	cvtsi2sdl	__ZL12bitmapHeight(%rip), %xmm1
	movsd	%xmm0, -32(%rbp)
	movsd	%xmm1, -40(%rbp)
Ltmp21:
	.file	22 "/Users/theodorebendixson1/AppDevelopment/Personal Projects/Handmade Game Tutorials OSX/Day7/build" "/Applications/Xcode.app/Contents/Developer/Platforms/MacOSX.platform/Developer/SDKs/MacOSX10.14.sdk/System/Library/Frameworks/Foundation.framework/Headers/NSGeometry.h"
	.loc	22 141 15 is_stmt 1     ## /Applications/Xcode.app/Contents/Developer/Platforms/MacOSX.platform/Developer/SDKs/MacOSX10.14.sdk/System/Library/Frameworks/Foundation.framework/Headers/NSGeometry.h:141:15
	movsd	-32(%rbp), %xmm0        ## xmm0 = mem[0],zero
	.loc	22 141 13 is_stmt 0     ## /Applications/Xcode.app/Contents/Developer/Platforms/MacOSX.platform/Developer/SDKs/MacOSX10.14.sdk/System/Library/Frameworks/Foundation.framework/Headers/NSGeometry.h:141:13
	movsd	%xmm0, -24(%rbp)
	.loc	22 142 16 is_stmt 1     ## /Applications/Xcode.app/Contents/Developer/Platforms/MacOSX.platform/Developer/SDKs/MacOSX10.14.sdk/System/Library/Frameworks/Foundation.framework/Headers/NSGeometry.h:142:16
	movsd	-40(%rbp), %xmm0        ## xmm0 = mem[0],zero
	.loc	22 142 14 is_stmt 0     ## /Applications/Xcode.app/Contents/Developer/Platforms/MacOSX.platform/Developer/SDKs/MacOSX10.14.sdk/System/Library/Frameworks/Foundation.framework/Headers/NSGeometry.h:142:14
	movsd	%xmm0, -16(%rbp)
	.loc	22 143 5 is_stmt 1      ## /Applications/Xcode.app/Contents/Developer/Platforms/MacOSX.platform/Developer/SDKs/MacOSX10.14.sdk/System/Library/Frameworks/Foundation.framework/Headers/NSGeometry.h:143:5
	movsd	-24(%rbp), %xmm0        ## xmm0 = mem[0],zero
	movsd	-16(%rbp), %xmm1        ## xmm1 = mem[0],zero
Ltmp22:
	.loc	1 92 28                 ## ../handmade/code/osx_main.mm:92:28
	movsd	%xmm0, -72(%rbp)
	movsd	%xmm1, -64(%rbp)
	.loc	1 93 28                 ## ../handmade/code/osx_main.mm:93:28
	movq	L_OBJC_CLASSLIST_REFERENCES_$_.9(%rip), %rax
	movq	L_OBJC_SELECTOR_REFERENCES_.4(%rip), %rsi
	movq	%rax, %rdi
	callq	*_objc_msgSend@GOTPCREL(%rip)
	.loc	1 93 58 is_stmt 0       ## ../handmade/code/osx_main.mm:93:58
	movq	-72(%rbp), %rcx
	movq	%rcx, -96(%rbp)
	movq	-64(%rbp), %rcx
	movq	%rcx, -88(%rbp)
	.loc	1 93 27                 ## ../handmade/code/osx_main.mm:93:27
	movq	L_OBJC_SELECTOR_REFERENCES_.11(%rip), %rsi
	movsd	-96(%rbp), %xmm0        ## xmm0 = mem[0],zero
	movsd	-88(%rbp), %xmm1        ## xmm1 = mem[0],zero
	movq	%rax, %rdi
	callq	*_objc_msgSend@GOTPCREL(%rip)
	.loc	1 93 26                 ## ../handmade/code/osx_main.mm:93:26
	movq	L_OBJC_SELECTOR_REFERENCES_.8(%rip), %rsi
	movq	%rax, %rdi
	callq	*_objc_msgSend@GOTPCREL(%rip)
	.loc	1 93 18                 ## ../handmade/code/osx_main.mm:93:18
	movq	%rax, -80(%rbp)
	.loc	1 94 10 is_stmt 1       ## ../handmade/code/osx_main.mm:94:10
	movq	-80(%rbp), %rax
	.loc	1 94 35 is_stmt 0       ## ../handmade/code/osx_main.mm:94:35
	movq	-56(%rbp), %rcx
	.loc	1 94 9                  ## ../handmade/code/osx_main.mm:94:9
	movq	L_OBJC_SELECTOR_REFERENCES_.13(%rip), %rsi
	movq	%rax, %rdi
	movq	%rcx, %rdx
	callq	*_objc_msgSend@GOTPCREL(%rip)
	.loc	1 95 45 is_stmt 1       ## ../handmade/code/osx_main.mm:95:45
	movq	-80(%rbp), %rax
	.loc	1 95 9 is_stmt 0        ## ../handmade/code/osx_main.mm:95:9
	movq	-48(%rbp), %rcx
	.loc	1 95 16                 ## ../handmade/code/osx_main.mm:95:16
	movq	L_OBJC_SELECTOR_REFERENCES_(%rip), %rsi
	movq	%rcx, %rdi
	movq	%rax, -120(%rbp)        ## 8-byte Spill
	callq	*_objc_msgSend@GOTPCREL(%rip)
	.loc	1 95 28                 ## ../handmade/code/osx_main.mm:95:28
	movq	L_OBJC_SELECTOR_REFERENCES_.15(%rip), %rsi
	movq	%rax, %rdi
	callq	*_objc_msgSend@GOTPCREL(%rip)
	.loc	1 95 34                 ## ../handmade/code/osx_main.mm:95:34
	movq	L_OBJC_SELECTOR_REFERENCES_.17(%rip), %rsi
	movq	%rax, %rdi
	movq	-120(%rbp), %rdx        ## 8-byte Reload
	callq	*_objc_msgSend@GOTPCREL(%rip)
	.loc	1 96 5 is_stmt 1        ## ../handmade/code/osx_main.mm:96:5
	movq	-104(%rbp), %rdi        ## 8-byte Reload
	callq	_objc_autoreleasePoolPop
Ltmp23:
	.loc	1 97 1                  ## ../handmade/code/osx_main.mm:97:1
	addq	$168, %rsp
	popq	%rbx
	popq	%rbp
	retq
Ltmp24:
Lfunc_end2:
	.cfi_endproc
	.file	23 "/Users/theodorebendixson1/AppDevelopment/Personal Projects/Handmade Game Tutorials OSX/Day7/build" "/Applications/Xcode.app/Contents/Developer/Platforms/MacOSX.platform/Developer/SDKs/MacOSX10.14.sdk/System/Library/Frameworks/CoreGraphics.framework/Headers/CGBase.h"
	.file	24 "/Users/theodorebendixson1/AppDevelopment/Personal Projects/Handmade Game Tutorials OSX/Day7/build" "/Applications/Xcode.app/Contents/Developer/Platforms/MacOSX.platform/Developer/SDKs/MacOSX10.14.sdk/System/Library/Frameworks/CoreGraphics.framework/Headers/CGGeometry.h"
                                        ## -- End function
	.globl	__Z22macOSAudioUnitCallbackPvPjPK14AudioTimeStampjjP15AudioBufferList ## -- Begin function _Z22macOSAudioUnitCallbackPvPjPK14AudioTimeStampjjP15AudioBufferList
	.p2align	4, 0x90
__Z22macOSAudioUnitCallbackPvPjPK14AudioTimeStampjjP15AudioBufferList: ## @_Z22macOSAudioUnitCallbackPvPjPK14AudioTimeStampjjP15AudioBufferList
Lfunc_begin3:
	.loc	1 123 0                 ## ../handmade/code/osx_main.mm:123:0
	.cfi_startproc
## %bb.0:
	pushq	%rbp
	.cfi_def_cfa_offset 16
	.cfi_offset %rbp, -16
	movq	%rsp, %rbp
	.cfi_def_cfa_register %rbp
	xorl	%eax, %eax
	movq	%rdi, -8(%rbp)
	movq	%rsi, -16(%rbp)
	movq	%rdx, -24(%rbp)
	movl	%ecx, -28(%rbp)
	movl	%r8d, -32(%rbp)
	movq	%r9, -40(%rbp)
Ltmp25:
	.loc	1 124 5 prologue_end    ## ../handmade/code/osx_main.mm:124:5
	popq	%rbp
	retq
Ltmp26:
Lfunc_end3:
	.cfi_endproc
                                        ## -- End function
	.section	__TEXT,__literal8,8byte_literals
	.p2align	3               ## -- Begin function _Z22SineWaveRenderCallbackPvPjPK14AudioTimeStampjjP15AudioBufferList
LCPI4_0:
	.quad	4618760256179416344     ## double 6.2831853071795862
LCPI4_1:
	.quad	4636737291354636288     ## double 100
LCPI4_2:
	.quad	4662219572839972864     ## double 5000
	.section	__TEXT,__text,regular,pure_instructions
	.globl	__Z22SineWaveRenderCallbackPvPjPK14AudioTimeStampjjP15AudioBufferList
	.p2align	4, 0x90
__Z22SineWaveRenderCallbackPvPjPK14AudioTimeStampjjP15AudioBufferList: ## @_Z22SineWaveRenderCallbackPvPjPK14AudioTimeStampjjP15AudioBufferList
Lfunc_begin4:
	.loc	1 133 0                 ## ../handmade/code/osx_main.mm:133:0
	.cfi_startproc
## %bb.0:
	pushq	%rbp
	.cfi_def_cfa_offset 16
	.cfi_offset %rbp, -16
	movq	%rsp, %rbp
	.cfi_def_cfa_register %rbp
	subq	$80, %rsp
	movsd	LCPI4_0(%rip), %xmm0    ## xmm0 = mem[0],zero
	movsd	LCPI4_1(%rip), %xmm1    ## xmm1 = mem[0],zero
	movq	%rdi, -8(%rbp)
	movq	%rsi, -16(%rbp)
	movq	%rdx, -24(%rbp)
	movl	%ecx, -28(%rbp)
	movl	%r8d, -32(%rbp)
	movq	%r9, -40(%rbp)
Ltmp27:
	.loc	1 141 57 prologue_end   ## ../handmade/code/osx_main.mm:141:57
	movq	-8(%rbp), %rdx
	.loc	1 141 23 is_stmt 0      ## ../handmade/code/osx_main.mm:141:23
	movq	%rdx, -48(%rbp)
	.loc	1 143 36 is_stmt 1      ## ../handmade/code/osx_main.mm:143:36
	movq	-40(%rbp), %rdx
	.loc	1 143 56 is_stmt 0      ## ../handmade/code/osx_main.mm:143:56
	movq	16(%rdx), %rdx
	.loc	1 143 12                ## ../handmade/code/osx_main.mm:143:12
	movq	%rdx, -56(%rbp)
	.loc	1 145 34 is_stmt 1      ## ../handmade/code/osx_main.mm:145:34
	movq	-48(%rbp), %rdx
	.loc	1 145 59 is_stmt 0      ## ../handmade/code/osx_main.mm:145:59
	movl	(%rdx), %ecx
	.loc	1 145 34                ## ../handmade/code/osx_main.mm:145:34
	cvtsi2sdl	%ecx, %xmm2
	.loc	1 145 32                ## ../handmade/code/osx_main.mm:145:32
	divsd	%xmm2, %xmm1
	.loc	1 146 30 is_stmt 1      ## ../handmade/code/osx_main.mm:146:30
	mulsd	%xmm0, %xmm1
	.loc	1 144 18                ## ../handmade/code/osx_main.mm:144:18
	movsd	%xmm1, -64(%rbp)
Ltmp28:
	.loc	1 148 17                ## ../handmade/code/osx_main.mm:148:17
	movl	$0, -68(%rbp)
LBB4_1:                                 ## =>This Inner Loop Header: Depth=1
Ltmp29:
	.loc	1 148 24 is_stmt 0      ## ../handmade/code/osx_main.mm:148:24
	movl	-68(%rbp), %eax
	.loc	1 148 26                ## ../handmade/code/osx_main.mm:148:26
	cmpl	-32(%rbp), %eax
Ltmp30:
	.loc	1 148 5                 ## ../handmade/code/osx_main.mm:148:5
	jae	LBB4_4
## %bb.2:                               ##   in Loop: Header=BB4_1 Depth=1
Ltmp31:
	.loc	1 150 38 is_stmt 1      ## ../handmade/code/osx_main.mm:150:38
	movq	-48(%rbp), %rax
	.loc	1 150 51 is_stmt 0      ## ../handmade/code/osx_main.mm:150:51
	movsd	48(%rax), %xmm0         ## xmm0 = mem[0],zero
	.loc	1 150 34                ## ../handmade/code/osx_main.mm:150:34
	callq	_sin
	movsd	LCPI4_2(%rip), %xmm1    ## xmm1 = mem[0],zero
	.loc	1 150 32                ## ../handmade/code/osx_main.mm:150:32
	mulsd	%xmm1, %xmm0
	.loc	1 150 27                ## ../handmade/code/osx_main.mm:150:27
	cvttsd2si	%xmm0, %ecx
	movw	%cx, %dx
	.loc	1 150 9                 ## ../handmade/code/osx_main.mm:150:9
	movq	-56(%rbp), %rax
	movl	-68(%rbp), %ecx
	movl	%ecx, %esi
	.loc	1 150 25                ## ../handmade/code/osx_main.mm:150:25
	movw	%dx, (%rax,%rsi,2)
	.loc	1 151 37 is_stmt 1      ## ../handmade/code/osx_main.mm:151:37
	movsd	-64(%rbp), %xmm0        ## xmm0 = mem[0],zero
	.loc	1 151 9 is_stmt 0       ## ../handmade/code/osx_main.mm:151:9
	movq	-48(%rbp), %rax
	.loc	1 151 34                ## ../handmade/code/osx_main.mm:151:34
	addsd	48(%rax), %xmm0
	movsd	%xmm0, 48(%rax)
Ltmp32:
## %bb.3:                               ##   in Loop: Header=BB4_1 Depth=1
	.loc	1 148 45 is_stmt 1      ## ../handmade/code/osx_main.mm:148:45
	movl	-68(%rbp), %eax
	addl	$1, %eax
	movl	%eax, -68(%rbp)
	.loc	1 148 5 is_stmt 0       ## ../handmade/code/osx_main.mm:148:5
	jmp	LBB4_1
Ltmp33:
LBB4_4:
	.loc	1 155 16 is_stmt 1      ## ../handmade/code/osx_main.mm:155:16
	movl	$1, -72(%rbp)
LBB4_5:                                 ## =>This Inner Loop Header: Depth=1
Ltmp34:
	.loc	1 155 23 is_stmt 0      ## ../handmade/code/osx_main.mm:155:23
	movl	-72(%rbp), %eax
	.loc	1 155 27                ## ../handmade/code/osx_main.mm:155:27
	movq	-40(%rbp), %rcx
	.loc	1 155 25                ## ../handmade/code/osx_main.mm:155:25
	cmpl	(%rcx), %eax
Ltmp35:
	.loc	1 155 5                 ## ../handmade/code/osx_main.mm:155:5
	jae	LBB4_8
## %bb.6:                               ##   in Loop: Header=BB4_5 Depth=1
Ltmp36:
	.loc	1 157 16 is_stmt 1      ## ../handmade/code/osx_main.mm:157:16
	movq	-40(%rbp), %rax
	.loc	1 157 24 is_stmt 0      ## ../handmade/code/osx_main.mm:157:24
	addq	$8, %rax
	.loc	1 157 16                ## ../handmade/code/osx_main.mm:157:16
	movl	-72(%rbp), %ecx
	movl	%ecx, %edx
	shlq	$4, %rdx
	addq	%rdx, %rax
	.loc	1 157 36                ## ../handmade/code/osx_main.mm:157:36
	movq	8(%rax), %rdi
	.loc	1 157 43                ## ../handmade/code/osx_main.mm:157:43
	movq	-56(%rbp), %rax
	.loc	1 157 57                ## ../handmade/code/osx_main.mm:157:57
	movq	-40(%rbp), %rdx
	.loc	1 157 65                ## ../handmade/code/osx_main.mm:157:65
	addq	$8, %rdx
	.loc	1 157 57                ## ../handmade/code/osx_main.mm:157:57
	movl	-72(%rbp), %ecx
	movl	%ecx, %esi
	shlq	$4, %rsi
	addq	%rsi, %rdx
	movl	4(%rdx), %ecx
	movl	%ecx, %edx
	.loc	1 157 9                 ## ../handmade/code/osx_main.mm:157:9
	movq	%rax, %rsi
	callq	_memcpy
Ltmp37:
## %bb.7:                               ##   in Loop: Header=BB4_5 Depth=1
	.loc	1 155 52 is_stmt 1      ## ../handmade/code/osx_main.mm:155:52
	movl	-72(%rbp), %eax
	addl	$1, %eax
	movl	%eax, -72(%rbp)
	.loc	1 155 5 is_stmt 0       ## ../handmade/code/osx_main.mm:155:5
	jmp	LBB4_5
Ltmp38:
LBB4_8:
	.loc	1 0 5                   ## ../handmade/code/osx_main.mm:0:5
	xorl	%eax, %eax
	.loc	1 160 5 is_stmt 1       ## ../handmade/code/osx_main.mm:160:5
	addq	$80, %rsp
	popq	%rbp
	retq
Ltmp39:
Lfunc_end4:
	.cfi_endproc
                                        ## -- End function
	.section	__TEXT,__literal8,8byte_literals
	.p2align	3               ## -- Begin function main
LCPI5_0:
	.quad	4602678819172646912     ## double 0.5
	.section	__TEXT,__text,regular,pure_instructions
	.globl	_main
	.p2align	4, 0x90
_main:                                  ## @main
Lfunc_begin5:
	.loc	1 235 0                 ## ../handmade/code/osx_main.mm:235:0
	.cfi_startproc
## %bb.0:
	pushq	%rbp
	.cfi_def_cfa_offset 16
	.cfi_offset %rbp, -16
	movq	%rsp, %rbp
	.cfi_def_cfa_register %rbp
	subq	$256, %rsp              ## imm = 0x100
	movl	$0, -36(%rbp)
	movl	%edi, -40(%rbp)
	movq	%rsi, -48(%rbp)
Ltmp40:
	.loc	1 237 55 prologue_end   ## ../handmade/code/osx_main.mm:237:55
	movq	L_OBJC_CLASSLIST_REFERENCES_$_.18(%rip), %rsi
	movq	L_OBJC_SELECTOR_REFERENCES_.4(%rip), %rax
	movq	%rsi, %rdi
	movq	%rax, %rsi
	callq	*_objc_msgSend@GOTPCREL(%rip)
	.loc	1 237 54 is_stmt 0      ## ../handmade/code/osx_main.mm:237:54
	movq	L_OBJC_SELECTOR_REFERENCES_.20(%rip), %rsi
	movq	%rax, %rdi
	callq	*_objc_msgSend@GOTPCREL(%rip)
	.loc	1 237 33                ## ../handmade/code/osx_main.mm:237:33
	movq	%rax, -56(%rbp)
	.loc	1 239 26 is_stmt 1      ## ../handmade/code/osx_main.mm:239:26
	movq	L_OBJC_CLASSLIST_REFERENCES_$_.21(%rip), %rax
	movq	L_OBJC_SELECTOR_REFERENCES_.23(%rip), %rsi
	movq	%rax, %rdi
	callq	*_objc_msgSend@GOTPCREL(%rip)
	.loc	1 239 25 is_stmt 0      ## ../handmade/code/osx_main.mm:239:25
	movq	L_OBJC_SELECTOR_REFERENCES_.25(%rip), %rdx
	cmpq	$0, %rax
	movq	%rdx, -192(%rbp)        ## 8-byte Spill
	movq	%rax, -200(%rbp)        ## 8-byte Spill
	je	LBB5_2
## %bb.1:
	leaq	-88(%rbp), %rdi
	movq	-200(%rbp), %rsi        ## 8-byte Reload
	movq	-192(%rbp), %rdx        ## 8-byte Reload
	callq	_objc_msgSend_stret
	jmp	LBB5_3
LBB5_2:
	.loc	1 0 25                  ## ../handmade/code/osx_main.mm:0:25
	xorl	%esi, %esi
	movl	$32, %eax
	movl	%eax, %edx
	.loc	1 239 25                ## ../handmade/code/osx_main.mm:239:25
	leaq	-88(%rbp), %rcx
	movq	%rcx, %rdi
	callq	_memset
LBB5_3:
	.loc	1 0 25                  ## ../handmade/code/osx_main.mm:0:25
	movsd	LCPI5_0(%rip), %xmm0    ## xmm0 = mem[0],zero
	.loc	1 241 55 is_stmt 1      ## ../handmade/code/osx_main.mm:241:55
	movsd	-72(%rbp), %xmm1        ## xmm1 = mem[0],zero
	.loc	1 241 63 is_stmt 0      ## ../handmade/code/osx_main.mm:241:63
	movss	__ZL17globalRenderWidth(%rip), %xmm2 ## xmm2 = mem[0],zero,zero,zero
	cvtss2sd	%xmm2, %xmm2
	.loc	1 241 61                ## ../handmade/code/osx_main.mm:241:61
	subsd	%xmm2, %xmm1
	.loc	1 241 82                ## ../handmade/code/osx_main.mm:241:82
	mulsd	%xmm0, %xmm1
	.loc	1 242 55 is_stmt 1      ## ../handmade/code/osx_main.mm:242:55
	movsd	-64(%rbp), %xmm2        ## xmm2 = mem[0],zero
	.loc	1 242 64 is_stmt 0      ## ../handmade/code/osx_main.mm:242:64
	movss	__ZL18globalRenderHeight(%rip), %xmm3 ## xmm3 = mem[0],zero,zero,zero
	cvtss2sd	%xmm3, %xmm3
	.loc	1 242 62                ## ../handmade/code/osx_main.mm:242:62
	subsd	%xmm3, %xmm2
	.loc	1 242 84                ## ../handmade/code/osx_main.mm:242:84
	mulsd	%xmm0, %xmm2
	.loc	1 243 38 is_stmt 1      ## ../handmade/code/osx_main.mm:243:38
	movss	__ZL17globalRenderWidth(%rip), %xmm0 ## xmm0 = mem[0],zero,zero,zero
	cvtss2sd	%xmm0, %xmm0
	.loc	1 244 38                ## ../handmade/code/osx_main.mm:244:38
	movss	__ZL18globalRenderHeight(%rip), %xmm3 ## xmm3 = mem[0],zero,zero,zero
	cvtss2sd	%xmm3, %xmm3
	movsd	%xmm1, -8(%rbp)
	movsd	%xmm2, -16(%rbp)
	movsd	%xmm0, -24(%rbp)
	movsd	%xmm3, -32(%rbp)
Ltmp41:
	.loc	22 148 18               ## /Applications/Xcode.app/Contents/Developer/Platforms/MacOSX.platform/Developer/SDKs/MacOSX10.14.sdk/System/Library/Frameworks/Foundation.framework/Headers/NSGeometry.h:148:18
	movsd	-8(%rbp), %xmm0         ## xmm0 = mem[0],zero
	.loc	22 148 16 is_stmt 0     ## /Applications/Xcode.app/Contents/Developer/Platforms/MacOSX.platform/Developer/SDKs/MacOSX10.14.sdk/System/Library/Frameworks/Foundation.framework/Headers/NSGeometry.h:148:16
	movsd	%xmm0, -120(%rbp)
	.loc	22 149 18 is_stmt 1     ## /Applications/Xcode.app/Contents/Developer/Platforms/MacOSX.platform/Developer/SDKs/MacOSX10.14.sdk/System/Library/Frameworks/Foundation.framework/Headers/NSGeometry.h:149:18
	movsd	-16(%rbp), %xmm0        ## xmm0 = mem[0],zero
	.loc	22 149 16 is_stmt 0     ## /Applications/Xcode.app/Contents/Developer/Platforms/MacOSX.platform/Developer/SDKs/MacOSX10.14.sdk/System/Library/Frameworks/Foundation.framework/Headers/NSGeometry.h:149:16
	movsd	%xmm0, -112(%rbp)
	.loc	22 150 20 is_stmt 1     ## /Applications/Xcode.app/Contents/Developer/Platforms/MacOSX.platform/Developer/SDKs/MacOSX10.14.sdk/System/Library/Frameworks/Foundation.framework/Headers/NSGeometry.h:150:20
	movsd	-24(%rbp), %xmm0        ## xmm0 = mem[0],zero
	.loc	22 150 18 is_stmt 0     ## /Applications/Xcode.app/Contents/Developer/Platforms/MacOSX.platform/Developer/SDKs/MacOSX10.14.sdk/System/Library/Frameworks/Foundation.framework/Headers/NSGeometry.h:150:18
	movsd	%xmm0, -104(%rbp)
	.loc	22 151 21 is_stmt 1     ## /Applications/Xcode.app/Contents/Developer/Platforms/MacOSX.platform/Developer/SDKs/MacOSX10.14.sdk/System/Library/Frameworks/Foundation.framework/Headers/NSGeometry.h:151:21
	movsd	-32(%rbp), %xmm0        ## xmm0 = mem[0],zero
	.loc	22 151 19 is_stmt 0     ## /Applications/Xcode.app/Contents/Developer/Platforms/MacOSX.platform/Developer/SDKs/MacOSX10.14.sdk/System/Library/Frameworks/Foundation.framework/Headers/NSGeometry.h:151:19
	movsd	%xmm0, -96(%rbp)
Ltmp42:
	.loc	1 246 25 is_stmt 1      ## ../handmade/code/osx_main.mm:246:25
	movq	L_OBJC_CLASSLIST_REFERENCES_$_.26(%rip), %rax
	movq	L_OBJC_SELECTOR_REFERENCES_.4(%rip), %rsi
	movq	%rax, %rdi
	callq	*_objc_msgSend@GOTPCREL(%rip)
	movl	$15, %ecx
	movl	%ecx, %edx
	movl	$2, %ecx
                                        ## kill: def $rcx killed $ecx
	xorl	%r8d, %r8d
	.loc	1 247 47                ## ../handmade/code/osx_main.mm:247:47
	movq	-120(%rbp), %rsi
	movq	%rsi, -160(%rbp)
	movq	-112(%rbp), %rsi
	movq	%rsi, -152(%rbp)
	movq	-104(%rbp), %rsi
	movq	%rsi, -144(%rbp)
	movq	-96(%rbp), %rsi
	movq	%rsi, -136(%rbp)
	.loc	1 246 24                ## ../handmade/code/osx_main.mm:246:24
	movq	L_OBJC_SELECTOR_REFERENCES_.28(%rip), %rsi
	movq	%rax, %rdi
	leaq	-160(%rbp), %rax
	movq	(%rax), %r9
	movq	%r9, (%rsp)
	movq	8(%rax), %r9
	movq	%r9, 8(%rsp)
	movq	16(%rax), %r9
	movq	%r9, 16(%rsp)
	movq	24(%rax), %rax
	movq	%rax, 24(%rsp)
	callq	*_objc_msgSend@GOTPCREL(%rip)
	.loc	1 246 15 is_stmt 0      ## ../handmade/code/osx_main.mm:246:15
	movq	%rax, -128(%rbp)
	.loc	1 255 6 is_stmt 1       ## ../handmade/code/osx_main.mm:255:6
	movq	-128(%rbp), %rax
	.loc	1 255 41 is_stmt 0      ## ../handmade/code/osx_main.mm:255:41
	movq	L_OBJC_CLASSLIST_REFERENCES_$_.29(%rip), %rcx
	movq	L_OBJC_SELECTOR_REFERENCES_.31(%rip), %rsi
	movq	%rcx, %rdi
	movq	%rax, -208(%rbp)        ## 8-byte Spill
	callq	*_objc_msgSend@GOTPCREL(%rip)
	.loc	1 255 5                 ## ../handmade/code/osx_main.mm:255:5
	movq	L_OBJC_SELECTOR_REFERENCES_.33(%rip), %rsi
	movq	-208(%rbp), %rcx        ## 8-byte Reload
	movq	%rcx, %rdi
	movq	%rax, %rdx
	callq	*_objc_msgSend@GOTPCREL(%rip)
	leaq	L__unnamed_cfstring_(%rip), %rax
	.loc	1 256 6 is_stmt 1       ## ../handmade/code/osx_main.mm:256:6
	movq	-128(%rbp), %rcx
	.loc	1 256 5 is_stmt 0       ## ../handmade/code/osx_main.mm:256:5
	movq	L_OBJC_SELECTOR_REFERENCES_.35(%rip), %rsi
	movq	%rcx, %rdi
	movq	%rax, %rdx
	callq	*_objc_msgSend@GOTPCREL(%rip)
	xorl	%r8d, %r8d
	movl	%r8d, %edx
	.loc	1 257 6 is_stmt 1       ## ../handmade/code/osx_main.mm:257:6
	movq	-128(%rbp), %rax
	.loc	1 257 5 is_stmt 0       ## ../handmade/code/osx_main.mm:257:5
	movq	L_OBJC_SELECTOR_REFERENCES_.37(%rip), %rsi
	movq	%rax, %rdi
	callq	*_objc_msgSend@GOTPCREL(%rip)
	.loc	1 258 6 is_stmt 1       ## ../handmade/code/osx_main.mm:258:6
	movq	-128(%rbp), %rax
	.loc	1 258 26 is_stmt 0      ## ../handmade/code/osx_main.mm:258:26
	movq	-56(%rbp), %rcx
	.loc	1 258 5                 ## ../handmade/code/osx_main.mm:258:5
	movq	L_OBJC_SELECTOR_REFERENCES_.39(%rip), %rsi
	movq	%rax, %rdi
	movq	%rcx, %rdx
	callq	*_objc_msgSend@GOTPCREL(%rip)
	.loc	1 259 5 is_stmt 1       ## ../handmade/code/osx_main.mm:259:5
	movq	-128(%rbp), %rax
	.loc	1 259 12 is_stmt 0      ## ../handmade/code/osx_main.mm:259:12
	movq	L_OBJC_SELECTOR_REFERENCES_(%rip), %rsi
	movq	%rax, %rdi
	callq	*_objc_msgSend@GOTPCREL(%rip)
	.loc	1 259 24                ## ../handmade/code/osx_main.mm:259:24
	movq	L_OBJC_SELECTOR_REFERENCES_.41(%rip), %rsi
	movq	%rax, %rdi
	movl	$1, %edx
	callq	*_objc_msgSend@GOTPCREL(%rip)
	.loc	1 261 24 is_stmt 1      ## ../handmade/code/osx_main.mm:261:24
	movq	-128(%rbp), %rdi
	.loc	1 261 5 is_stmt 0       ## ../handmade/code/osx_main.mm:261:5
	callq	__Z18macOSRefreshBufferP8NSWindow
	.loc	1 263 27 is_stmt 1      ## ../handmade/code/osx_main.mm:263:27
	movq	$1, -168(%rbp)
	.loc	1 264 5                 ## ../handmade/code/osx_main.mm:264:5
	movq	L_OBJC_CLASSLIST_REFERENCES_$_.42(%rip), %rax
	.loc	1 264 54 is_stmt 0      ## ../handmade/code/osx_main.mm:264:54
	movq	-168(%rbp), %rdx
	.loc	1 264 5                 ## ../handmade/code/osx_main.mm:264:5
	movq	L_OBJC_SELECTOR_REFERENCES_.44(%rip), %rsi
	movq	%rax, %rdi
	callq	*_objc_msgSend@GOTPCREL(%rip)
	.loc	1 265 5 is_stmt 1       ## ../handmade/code/osx_main.mm:265:5
	movq	L_OBJC_CLASSLIST_REFERENCES_$_.42(%rip), %rax
	movq	L_OBJC_SELECTOR_REFERENCES_.46(%rip), %rsi
	movq	%rax, %rdi
	callq	*_objc_msgSend@GOTPCREL(%rip)
LBB5_4:                                 ## =>This Loop Header: Depth=1
                                        ##     Child Loop BB5_22 Depth 2
	.loc	1 267 5                 ## ../handmade/code/osx_main.mm:267:5
	testb	$1, _running(%rip)
	je	LBB5_32
## %bb.5:                               ##   in Loop: Header=BB5_4 Depth=1
Ltmp43:
	.loc	1 269 9                 ## ../handmade/code/osx_main.mm:269:9
	callq	__Z19renderWeirdGradientv
	.loc	1 270 27                ## ../handmade/code/osx_main.mm:270:27
	movq	-128(%rbp), %rdi
	.loc	1 270 9 is_stmt 0       ## ../handmade/code/osx_main.mm:270:9
	callq	__Z17macOSRedrawBufferP8NSWindow
	.loc	1 272 45 is_stmt 1      ## ../handmade/code/osx_main.mm:272:45
	movq	L_OBJC_CLASSLIST_REFERENCES_$_.42(%rip), %rdi
	movq	L_OBJC_SELECTOR_REFERENCES_.48(%rip), %rsi
	callq	*_objc_msgSend@GOTPCREL(%rip)
	.loc	1 272 32 is_stmt 0      ## ../handmade/code/osx_main.mm:272:32
	movq	%rax, -176(%rbp)
Ltmp44:
	.loc	1 274 23 is_stmt 1      ## ../handmade/code/osx_main.mm:274:23
	cmpq	$0, -176(%rbp)
Ltmp45:
	.loc	1 274 12 is_stmt 0      ## ../handmade/code/osx_main.mm:274:12
	je	LBB5_21
## %bb.6:                               ##   in Loop: Header=BB5_4 Depth=1
Ltmp46:
	.loc	1 275 16 is_stmt 1      ## ../handmade/code/osx_main.mm:275:16
	movq	-176(%rbp), %rax
	.loc	1 275 27 is_stmt 0      ## ../handmade/code/osx_main.mm:275:27
	movq	L_OBJC_SELECTOR_REFERENCES_.50(%rip), %rsi
	movq	%rax, %rdi
	callq	*_objc_msgSend@GOTPCREL(%rip)
	.loc	1 275 16                ## ../handmade/code/osx_main.mm:275:16
	movsbl	%al, %ecx
	.loc	1 275 40                ## ../handmade/code/osx_main.mm:275:40
	cmpl	$1, %ecx
Ltmp47:
	.loc	1 275 16                ## ../handmade/code/osx_main.mm:275:16
	jne	LBB5_8
## %bb.7:                               ##   in Loop: Header=BB5_4 Depth=1
Ltmp48:
	.loc	1 276 24 is_stmt 1      ## ../handmade/code/osx_main.mm:276:24
	movl	__ZL7offsetX(%rip), %eax
	addl	$1, %eax
	movl	%eax, __ZL7offsetX(%rip)
Ltmp49:
LBB5_8:                                 ##   in Loop: Header=BB5_4 Depth=1
	.loc	1 279 16                ## ../handmade/code/osx_main.mm:279:16
	movq	-176(%rbp), %rax
	.loc	1 279 27 is_stmt 0      ## ../handmade/code/osx_main.mm:279:27
	movq	L_OBJC_SELECTOR_REFERENCES_.52(%rip), %rsi
	movq	%rax, %rdi
	callq	*_objc_msgSend@GOTPCREL(%rip)
	.loc	1 279 16                ## ../handmade/code/osx_main.mm:279:16
	movsbl	%al, %ecx
	.loc	1 279 51                ## ../handmade/code/osx_main.mm:279:51
	cmpl	$1, %ecx
Ltmp50:
	.loc	1 279 16                ## ../handmade/code/osx_main.mm:279:16
	jne	LBB5_10
## %bb.9:                               ##   in Loop: Header=BB5_4 Depth=1
Ltmp51:
	.loc	1 280 24 is_stmt 1      ## ../handmade/code/osx_main.mm:280:24
	movl	__ZL7offsetX(%rip), %eax
	addl	$-1, %eax
	movl	%eax, __ZL7offsetX(%rip)
Ltmp52:
LBB5_10:                                ##   in Loop: Header=BB5_4 Depth=1
	.loc	1 283 16                ## ../handmade/code/osx_main.mm:283:16
	movq	-176(%rbp), %rax
	.loc	1 283 27 is_stmt 0      ## ../handmade/code/osx_main.mm:283:27
	movq	L_OBJC_SELECTOR_REFERENCES_.54(%rip), %rsi
	movq	%rax, %rdi
	callq	*_objc_msgSend@GOTPCREL(%rip)
	.loc	1 283 16                ## ../handmade/code/osx_main.mm:283:16
	movsbl	%al, %ecx
	.loc	1 283 52                ## ../handmade/code/osx_main.mm:283:52
	cmpl	$1, %ecx
Ltmp53:
	.loc	1 283 16                ## ../handmade/code/osx_main.mm:283:16
	jne	LBB5_12
## %bb.11:                              ##   in Loop: Header=BB5_4 Depth=1
Ltmp54:
	.loc	1 284 24 is_stmt 1      ## ../handmade/code/osx_main.mm:284:24
	movl	__ZL7offsetX(%rip), %eax
	addl	$1, %eax
	movl	%eax, __ZL7offsetX(%rip)
Ltmp55:
LBB5_12:                                ##   in Loop: Header=BB5_4 Depth=1
	.loc	1 287 17                ## ../handmade/code/osx_main.mm:287:17
	movq	-176(%rbp), %rax
	.loc	1 287 28 is_stmt 0      ## ../handmade/code/osx_main.mm:287:28
	movq	L_OBJC_SELECTOR_REFERENCES_.56(%rip), %rsi
	movq	%rax, %rdi
	callq	*_objc_msgSend@GOTPCREL(%rip)
	.loc	1 287 34                ## ../handmade/code/osx_main.mm:287:34
	cmpq	$1, %rax
Ltmp56:
	.loc	1 287 17                ## ../handmade/code/osx_main.mm:287:17
	jne	LBB5_14
## %bb.13:                              ##   in Loop: Header=BB5_4 Depth=1
Ltmp57:
	.loc	1 288 24 is_stmt 1      ## ../handmade/code/osx_main.mm:288:24
	movl	__ZL7offsetX(%rip), %eax
	addl	$1, %eax
	movl	%eax, __ZL7offsetX(%rip)
Ltmp58:
LBB5_14:                                ##   in Loop: Header=BB5_4 Depth=1
	.loc	1 291 17                ## ../handmade/code/osx_main.mm:291:17
	movq	-176(%rbp), %rax
	.loc	1 291 28 is_stmt 0      ## ../handmade/code/osx_main.mm:291:28
	movq	L_OBJC_SELECTOR_REFERENCES_.56(%rip), %rsi
	movq	%rax, %rdi
	callq	*_objc_msgSend@GOTPCREL(%rip)
	.loc	1 291 34                ## ../handmade/code/osx_main.mm:291:34
	cmpq	$-1, %rax
Ltmp59:
	.loc	1 291 17                ## ../handmade/code/osx_main.mm:291:17
	jne	LBB5_16
## %bb.15:                              ##   in Loop: Header=BB5_4 Depth=1
Ltmp60:
	.loc	1 292 24 is_stmt 1      ## ../handmade/code/osx_main.mm:292:24
	movl	__ZL7offsetX(%rip), %eax
	addl	$-1, %eax
	movl	%eax, __ZL7offsetX(%rip)
Ltmp61:
LBB5_16:                                ##   in Loop: Header=BB5_4 Depth=1
	.loc	1 295 17                ## ../handmade/code/osx_main.mm:295:17
	movq	-176(%rbp), %rax
	.loc	1 295 28 is_stmt 0      ## ../handmade/code/osx_main.mm:295:28
	movq	L_OBJC_SELECTOR_REFERENCES_.58(%rip), %rsi
	movq	%rax, %rdi
	callq	*_objc_msgSend@GOTPCREL(%rip)
	.loc	1 295 34                ## ../handmade/code/osx_main.mm:295:34
	cmpq	$1, %rax
Ltmp62:
	.loc	1 295 17                ## ../handmade/code/osx_main.mm:295:17
	jne	LBB5_18
## %bb.17:                              ##   in Loop: Header=BB5_4 Depth=1
Ltmp63:
	.loc	1 296 24 is_stmt 1      ## ../handmade/code/osx_main.mm:296:24
	movl	__ZL7offsetY(%rip), %eax
	addl	$1, %eax
	movl	%eax, __ZL7offsetY(%rip)
Ltmp64:
LBB5_18:                                ##   in Loop: Header=BB5_4 Depth=1
	.loc	1 299 17                ## ../handmade/code/osx_main.mm:299:17
	movq	-176(%rbp), %rax
	.loc	1 299 28 is_stmt 0      ## ../handmade/code/osx_main.mm:299:28
	movq	L_OBJC_SELECTOR_REFERENCES_.58(%rip), %rsi
	movq	%rax, %rdi
	callq	*_objc_msgSend@GOTPCREL(%rip)
	.loc	1 299 34                ## ../handmade/code/osx_main.mm:299:34
	cmpq	$-1, %rax
Ltmp65:
	.loc	1 299 17                ## ../handmade/code/osx_main.mm:299:17
	jne	LBB5_20
## %bb.19:                              ##   in Loop: Header=BB5_4 Depth=1
Ltmp66:
	.loc	1 300 24 is_stmt 1      ## ../handmade/code/osx_main.mm:300:24
	movl	__ZL7offsetY(%rip), %eax
	addl	$-1, %eax
	movl	%eax, __ZL7offsetY(%rip)
Ltmp67:
LBB5_20:                                ##   in Loop: Header=BB5_4 Depth=1
	.loc	1 302 9                 ## ../handmade/code/osx_main.mm:302:9
	jmp	LBB5_21
Ltmp68:
LBB5_21:                                ##   in Loop: Header=BB5_4 Depth=1
LBB5_22:                                ##   Parent Loop BB5_4 Depth=1
                                        ## =>  This Inner Loop Header: Depth=2
	.loc	1 0 9 is_stmt 0         ## ../handmade/code/osx_main.mm:0:9
	xorl	%eax, %eax
	movl	%eax, %ecx
	movq	_NSDefaultRunLoopMode@GOTPCREL(%rip), %rdx
	movq	_NSApp@GOTPCREL(%rip), %rsi
Ltmp69:
	.loc	1 307 22 is_stmt 1      ## ../handmade/code/osx_main.mm:307:22
	movq	(%rsi), %rsi
	.loc	1 309 51                ## ../handmade/code/osx_main.mm:309:51
	movq	(%rdx), %r8
	.loc	1 307 21                ## ../handmade/code/osx_main.mm:307:21
	movq	L_OBJC_SELECTOR_REFERENCES_.60(%rip), %rdx
	movq	%rsi, %rdi
	movq	%rdx, %rsi
	movq	$-1, %rdx
	movl	$1, %r9d
	callq	*_objc_msgSend@GOTPCREL(%rip)
	.loc	1 307 19 is_stmt 0      ## ../handmade/code/osx_main.mm:307:19
	movq	%rax, -184(%rbp)
Ltmp70:
	.loc	1 312 23 is_stmt 1      ## ../handmade/code/osx_main.mm:312:23
	cmpq	$0, -184(%rbp)
	.loc	1 312 30 is_stmt 0      ## ../handmade/code/osx_main.mm:312:30
	je	LBB5_27
## %bb.23:                              ##   in Loop: Header=BB5_22 Depth=2
	.loc	1 313 29 is_stmt 1      ## ../handmade/code/osx_main.mm:313:29
	cmpq	$1, -168(%rbp)
	.loc	1 313 62 is_stmt 0      ## ../handmade/code/osx_main.mm:313:62
	jne	LBB5_27
## %bb.24:                              ##   in Loop: Header=BB5_22 Depth=2
	.loc	1 314 18 is_stmt 1      ## ../handmade/code/osx_main.mm:314:18
	movq	-184(%rbp), %rax
	.loc	1 314 24 is_stmt 0      ## ../handmade/code/osx_main.mm:314:24
	movq	L_OBJC_SELECTOR_REFERENCES_.62(%rip), %rsi
	movq	%rax, %rdi
	callq	*_objc_msgSend@GOTPCREL(%rip)
	.loc	1 314 29                ## ../handmade/code/osx_main.mm:314:29
	cmpq	$10, %rax
	.loc	1 314 51                ## ../handmade/code/osx_main.mm:314:51
	je	LBB5_26
## %bb.25:                              ##   in Loop: Header=BB5_22 Depth=2
	.loc	1 315 17 is_stmt 1      ## ../handmade/code/osx_main.mm:315:17
	movq	-184(%rbp), %rax
	.loc	1 315 23 is_stmt 0      ## ../handmade/code/osx_main.mm:315:23
	movq	L_OBJC_SELECTOR_REFERENCES_.62(%rip), %rsi
	movq	%rax, %rdi
	callq	*_objc_msgSend@GOTPCREL(%rip)
	.loc	1 315 28                ## ../handmade/code/osx_main.mm:315:28
	cmpq	$11, %rax
Ltmp71:
	.loc	1 312 17 is_stmt 1      ## ../handmade/code/osx_main.mm:312:17
	jne	LBB5_27
LBB5_26:                                ##   in Loop: Header=BB5_22 Depth=2
Ltmp72:
	.loc	1 316 17                ## ../handmade/code/osx_main.mm:316:17
	movq	L_OBJC_CLASSLIST_REFERENCES_$_.42(%rip), %rax
	.loc	1 316 70 is_stmt 0      ## ../handmade/code/osx_main.mm:316:70
	movq	-184(%rbp), %rdx
	.loc	1 316 17                ## ../handmade/code/osx_main.mm:316:17
	movq	L_OBJC_SELECTOR_REFERENCES_.64(%rip), %rsi
	movq	%rax, %rdi
	callq	*_objc_msgSend@GOTPCREL(%rip)
Ltmp73:
LBB5_27:                                ##   in Loop: Header=BB5_22 Depth=2
	.loc	1 319 22 is_stmt 1      ## ../handmade/code/osx_main.mm:319:22
	movq	-184(%rbp), %rdi
	.loc	1 319 21 is_stmt 0      ## ../handmade/code/osx_main.mm:319:21
	movq	L_OBJC_SELECTOR_REFERENCES_.62(%rip), %rsi
	movq	_objc_msgSend@GOTPCREL(%rip), %rax
	callq	*%rax
	movq	%rax, -216(%rbp)        ## 8-byte Spill
## %bb.28:                              ##   in Loop: Header=BB5_22 Depth=2
	.loc	1 0 21                  ## ../handmade/code/osx_main.mm:0:21
	movq	_NSApp@GOTPCREL(%rip), %rax
Ltmp74:
	.loc	1 321 22 is_stmt 1      ## ../handmade/code/osx_main.mm:321:22
	movq	(%rax), %rax
	.loc	1 321 39 is_stmt 0      ## ../handmade/code/osx_main.mm:321:39
	movq	-184(%rbp), %rdx
	.loc	1 321 21                ## ../handmade/code/osx_main.mm:321:21
	movq	L_OBJC_SELECTOR_REFERENCES_.66(%rip), %rsi
	movq	%rax, %rdi
	callq	*_objc_msgSend@GOTPCREL(%rip)
Ltmp75:
## %bb.29:                              ##   in Loop: Header=BB5_22 Depth=2
	.loc	1 323 9 is_stmt 1       ## ../handmade/code/osx_main.mm:323:9
	jmp	LBB5_30
Ltmp76:
LBB5_30:                                ##   in Loop: Header=BB5_22 Depth=2
	.loc	1 323 24 is_stmt 0      ## ../handmade/code/osx_main.mm:323:24
	cmpq	$0, -184(%rbp)
Ltmp77:
	.loc	1 323 9                 ## ../handmade/code/osx_main.mm:323:9
	jne	LBB5_22
Ltmp78:
## %bb.31:                              ##   in Loop: Header=BB5_4 Depth=1
	.loc	1 267 5 is_stmt 1       ## ../handmade/code/osx_main.mm:267:5
	jmp	LBB5_4
LBB5_32:
	.loc	1 326 5                 ## ../handmade/code/osx_main.mm:326:5
	leaq	L_.str.67(%rip), %rdi
	movb	$0, %al
	callq	_printf
	.loc	1 327 1                 ## ../handmade/code/osx_main.mm:327:1
	movl	-36(%rbp), %ecx
	movl	%eax, -220(%rbp)        ## 4-byte Spill
	movl	%ecx, %eax
	addq	$256, %rsp              ## imm = 0x100
	popq	%rbp
	retq
Ltmp79:
Lfunc_end5:
	.cfi_endproc
                                        ## -- End function
	.section	__DATA,__data
	.globl	_running                ## @running
_running:
	.byte	1                       ## 0x1

.zerofill __DATA,__bss,__ZL6buffer,8,3  ## @_ZL6buffer
	.section	__TEXT,__objc_methname,cstring_literals
L_OBJC_METH_VAR_NAME_:                  ## @OBJC_METH_VAR_NAME_
	.asciz	"contentView"

	.section	__DATA,__objc_selrefs,literal_pointers,no_dead_strip
	.p2align	3               ## @OBJC_SELECTOR_REFERENCES_
L_OBJC_SELECTOR_REFERENCES_:
	.quad	L_OBJC_METH_VAR_NAME_

	.section	__TEXT,__objc_methname,cstring_literals
L_OBJC_METH_VAR_NAME_.1:                ## @OBJC_METH_VAR_NAME_.1
	.asciz	"bounds"

	.section	__DATA,__objc_selrefs,literal_pointers,no_dead_strip
	.p2align	3               ## @OBJC_SELECTOR_REFERENCES_.2
L_OBJC_SELECTOR_REFERENCES_.2:
	.quad	L_OBJC_METH_VAR_NAME_.1

.zerofill __DATA,__bss,__ZL11bitmapWidth,4,2 ## @_ZL11bitmapWidth
.zerofill __DATA,__bss,__ZL12bitmapHeight,4,2 ## @_ZL12bitmapHeight
	.section	__DATA,__data
	.p2align	2               ## @_ZL13bytesPerPixel
__ZL13bytesPerPixel:
	.long	4                       ## 0x4

.zerofill __DATA,__bss,__ZL5pitch,4,2   ## @_ZL5pitch
.zerofill __DATA,__bss,__ZL7offsetY,4,2 ## @_ZL7offsetY
.zerofill __DATA,__bss,__ZL7offsetX,4,2 ## @_ZL7offsetX
	.section	__DATA,__objc_classrefs,regular,no_dead_strip
	.p2align	3               ## @"OBJC_CLASSLIST_REFERENCES_$_"
L_OBJC_CLASSLIST_REFERENCES_$_:
	.quad	_OBJC_CLASS_$_NSBitmapImageRep

	.section	__TEXT,__objc_methname,cstring_literals
L_OBJC_METH_VAR_NAME_.3:                ## @OBJC_METH_VAR_NAME_.3
	.asciz	"alloc"

	.section	__DATA,__objc_selrefs,literal_pointers,no_dead_strip
	.p2align	3               ## @OBJC_SELECTOR_REFERENCES_.4
L_OBJC_SELECTOR_REFERENCES_.4:
	.quad	L_OBJC_METH_VAR_NAME_.3

	.section	__TEXT,__objc_methname,cstring_literals
L_OBJC_METH_VAR_NAME_.5:                ## @OBJC_METH_VAR_NAME_.5
	.asciz	"initWithBitmapDataPlanes:pixelsWide:pixelsHigh:bitsPerSample:samplesPerPixel:hasAlpha:isPlanar:colorSpaceName:bytesPerRow:bitsPerPixel:"

	.section	__DATA,__objc_selrefs,literal_pointers,no_dead_strip
	.p2align	3               ## @OBJC_SELECTOR_REFERENCES_.6
L_OBJC_SELECTOR_REFERENCES_.6:
	.quad	L_OBJC_METH_VAR_NAME_.5

	.section	__TEXT,__objc_methname,cstring_literals
L_OBJC_METH_VAR_NAME_.7:                ## @OBJC_METH_VAR_NAME_.7
	.asciz	"autorelease"

	.section	__DATA,__objc_selrefs,literal_pointers,no_dead_strip
	.p2align	3               ## @OBJC_SELECTOR_REFERENCES_.8
L_OBJC_SELECTOR_REFERENCES_.8:
	.quad	L_OBJC_METH_VAR_NAME_.7

	.section	__DATA,__objc_classrefs,regular,no_dead_strip
	.p2align	3               ## @"OBJC_CLASSLIST_REFERENCES_$_.9"
L_OBJC_CLASSLIST_REFERENCES_$_.9:
	.quad	_OBJC_CLASS_$_NSImage

	.section	__TEXT,__objc_methname,cstring_literals
L_OBJC_METH_VAR_NAME_.10:               ## @OBJC_METH_VAR_NAME_.10
	.asciz	"initWithSize:"

	.section	__DATA,__objc_selrefs,literal_pointers,no_dead_strip
	.p2align	3               ## @OBJC_SELECTOR_REFERENCES_.11
L_OBJC_SELECTOR_REFERENCES_.11:
	.quad	L_OBJC_METH_VAR_NAME_.10

	.section	__TEXT,__objc_methname,cstring_literals
L_OBJC_METH_VAR_NAME_.12:               ## @OBJC_METH_VAR_NAME_.12
	.asciz	"addRepresentation:"

	.section	__DATA,__objc_selrefs,literal_pointers,no_dead_strip
	.p2align	3               ## @OBJC_SELECTOR_REFERENCES_.13
L_OBJC_SELECTOR_REFERENCES_.13:
	.quad	L_OBJC_METH_VAR_NAME_.12

	.section	__TEXT,__objc_methname,cstring_literals
L_OBJC_METH_VAR_NAME_.14:               ## @OBJC_METH_VAR_NAME_.14
	.asciz	"layer"

	.section	__DATA,__objc_selrefs,literal_pointers,no_dead_strip
	.p2align	3               ## @OBJC_SELECTOR_REFERENCES_.15
L_OBJC_SELECTOR_REFERENCES_.15:
	.quad	L_OBJC_METH_VAR_NAME_.14

	.section	__TEXT,__objc_methname,cstring_literals
L_OBJC_METH_VAR_NAME_.16:               ## @OBJC_METH_VAR_NAME_.16
	.asciz	"setContents:"

	.section	__DATA,__objc_selrefs,literal_pointers,no_dead_strip
	.p2align	3               ## @OBJC_SELECTOR_REFERENCES_.17
L_OBJC_SELECTOR_REFERENCES_.17:
	.quad	L_OBJC_METH_VAR_NAME_.16

	.section	__DATA,__objc_classrefs,regular,no_dead_strip
	.p2align	3               ## @"OBJC_CLASSLIST_REFERENCES_$_.18"
L_OBJC_CLASSLIST_REFERENCES_$_.18:
	.quad	_OBJC_CLASS_$_HandmadeMainWindowDelegate

	.section	__TEXT,__objc_methname,cstring_literals
L_OBJC_METH_VAR_NAME_.19:               ## @OBJC_METH_VAR_NAME_.19
	.asciz	"init"

	.section	__DATA,__objc_selrefs,literal_pointers,no_dead_strip
	.p2align	3               ## @OBJC_SELECTOR_REFERENCES_.20
L_OBJC_SELECTOR_REFERENCES_.20:
	.quad	L_OBJC_METH_VAR_NAME_.19

	.section	__DATA,__objc_classrefs,regular,no_dead_strip
	.p2align	3               ## @"OBJC_CLASSLIST_REFERENCES_$_.21"
L_OBJC_CLASSLIST_REFERENCES_$_.21:
	.quad	_OBJC_CLASS_$_NSScreen

	.section	__TEXT,__objc_methname,cstring_literals
L_OBJC_METH_VAR_NAME_.22:               ## @OBJC_METH_VAR_NAME_.22
	.asciz	"mainScreen"

	.section	__DATA,__objc_selrefs,literal_pointers,no_dead_strip
	.p2align	3               ## @OBJC_SELECTOR_REFERENCES_.23
L_OBJC_SELECTOR_REFERENCES_.23:
	.quad	L_OBJC_METH_VAR_NAME_.22

	.section	__TEXT,__objc_methname,cstring_literals
L_OBJC_METH_VAR_NAME_.24:               ## @OBJC_METH_VAR_NAME_.24
	.asciz	"frame"

	.section	__DATA,__objc_selrefs,literal_pointers,no_dead_strip
	.p2align	3               ## @OBJC_SELECTOR_REFERENCES_.25
L_OBJC_SELECTOR_REFERENCES_.25:
	.quad	L_OBJC_METH_VAR_NAME_.24

	.section	__DATA,__data
	.p2align	2               ## @_ZL17globalRenderWidth
__ZL17globalRenderWidth:
	.long	1149239296              ## float 1024

	.p2align	2               ## @_ZL18globalRenderHeight
__ZL18globalRenderHeight:
	.long	1145044992              ## float 768

	.section	__DATA,__objc_classrefs,regular,no_dead_strip
	.p2align	3               ## @"OBJC_CLASSLIST_REFERENCES_$_.26"
L_OBJC_CLASSLIST_REFERENCES_$_.26:
	.quad	_OBJC_CLASS_$_HandmadeKeyIgnoringWindow

	.section	__TEXT,__objc_methname,cstring_literals
L_OBJC_METH_VAR_NAME_.27:               ## @OBJC_METH_VAR_NAME_.27
	.asciz	"initWithContentRect:styleMask:backing:defer:"

	.section	__DATA,__objc_selrefs,literal_pointers,no_dead_strip
	.p2align	3               ## @OBJC_SELECTOR_REFERENCES_.28
L_OBJC_SELECTOR_REFERENCES_.28:
	.quad	L_OBJC_METH_VAR_NAME_.27

	.section	__DATA,__objc_classrefs,regular,no_dead_strip
	.p2align	3               ## @"OBJC_CLASSLIST_REFERENCES_$_.29"
L_OBJC_CLASSLIST_REFERENCES_$_.29:
	.quad	_OBJC_CLASS_$_NSColor

	.section	__TEXT,__objc_methname,cstring_literals
L_OBJC_METH_VAR_NAME_.30:               ## @OBJC_METH_VAR_NAME_.30
	.asciz	"blackColor"

	.section	__DATA,__objc_selrefs,literal_pointers,no_dead_strip
	.p2align	3               ## @OBJC_SELECTOR_REFERENCES_.31
L_OBJC_SELECTOR_REFERENCES_.31:
	.quad	L_OBJC_METH_VAR_NAME_.30

	.section	__TEXT,__objc_methname,cstring_literals
L_OBJC_METH_VAR_NAME_.32:               ## @OBJC_METH_VAR_NAME_.32
	.asciz	"setBackgroundColor:"

	.section	__DATA,__objc_selrefs,literal_pointers,no_dead_strip
	.p2align	3               ## @OBJC_SELECTOR_REFERENCES_.33
L_OBJC_SELECTOR_REFERENCES_.33:
	.quad	L_OBJC_METH_VAR_NAME_.32

	.section	__TEXT,__cstring,cstring_literals
L_.str:                                 ## @.str
	.asciz	"Handmade Hero"

	.section	__DATA,__cfstring
	.p2align	3               ## @_unnamed_cfstring_
L__unnamed_cfstring_:
	.quad	___CFConstantStringClassReference
	.long	1992                    ## 0x7c8
	.space	4
	.quad	L_.str
	.quad	13                      ## 0xd

	.section	__TEXT,__objc_methname,cstring_literals
L_OBJC_METH_VAR_NAME_.34:               ## @OBJC_METH_VAR_NAME_.34
	.asciz	"setTitle:"

	.section	__DATA,__objc_selrefs,literal_pointers,no_dead_strip
	.p2align	3               ## @OBJC_SELECTOR_REFERENCES_.35
L_OBJC_SELECTOR_REFERENCES_.35:
	.quad	L_OBJC_METH_VAR_NAME_.34

	.section	__TEXT,__objc_methname,cstring_literals
L_OBJC_METH_VAR_NAME_.36:               ## @OBJC_METH_VAR_NAME_.36
	.asciz	"makeKeyAndOrderFront:"

	.section	__DATA,__objc_selrefs,literal_pointers,no_dead_strip
	.p2align	3               ## @OBJC_SELECTOR_REFERENCES_.37
L_OBJC_SELECTOR_REFERENCES_.37:
	.quad	L_OBJC_METH_VAR_NAME_.36

	.section	__TEXT,__objc_methname,cstring_literals
L_OBJC_METH_VAR_NAME_.38:               ## @OBJC_METH_VAR_NAME_.38
	.asciz	"setDelegate:"

	.section	__DATA,__objc_selrefs,literal_pointers,no_dead_strip
	.p2align	3               ## @OBJC_SELECTOR_REFERENCES_.39
L_OBJC_SELECTOR_REFERENCES_.39:
	.quad	L_OBJC_METH_VAR_NAME_.38

	.section	__TEXT,__objc_methname,cstring_literals
L_OBJC_METH_VAR_NAME_.40:               ## @OBJC_METH_VAR_NAME_.40
	.asciz	"setWantsLayer:"

	.section	__DATA,__objc_selrefs,literal_pointers,no_dead_strip
	.p2align	3               ## @OBJC_SELECTOR_REFERENCES_.41
L_OBJC_SELECTOR_REFERENCES_.41:
	.quad	L_OBJC_METH_VAR_NAME_.40

	.section	__DATA,__objc_classrefs,regular,no_dead_strip
	.p2align	3               ## @"OBJC_CLASSLIST_REFERENCES_$_.42"
L_OBJC_CLASSLIST_REFERENCES_$_.42:
	.quad	_OBJC_CLASS_$_OSXHandmadeController

	.section	__TEXT,__objc_methname,cstring_literals
L_OBJC_METH_VAR_NAME_.43:               ## @OBJC_METH_VAR_NAME_.43
	.asciz	"setControllerInputSource:"

	.section	__DATA,__objc_selrefs,literal_pointers,no_dead_strip
	.p2align	3               ## @OBJC_SELECTOR_REFERENCES_.44
L_OBJC_SELECTOR_REFERENCES_.44:
	.quad	L_OBJC_METH_VAR_NAME_.43

	.section	__TEXT,__objc_methname,cstring_literals
L_OBJC_METH_VAR_NAME_.45:               ## @OBJC_METH_VAR_NAME_.45
	.asciz	"initialize"

	.section	__DATA,__objc_selrefs,literal_pointers,no_dead_strip
	.p2align	3               ## @OBJC_SELECTOR_REFERENCES_.46
L_OBJC_SELECTOR_REFERENCES_.46:
	.quad	L_OBJC_METH_VAR_NAME_.45

	.section	__TEXT,__objc_methname,cstring_literals
L_OBJC_METH_VAR_NAME_.47:               ## @OBJC_METH_VAR_NAME_.47
	.asciz	"selectedController"

	.section	__DATA,__objc_selrefs,literal_pointers,no_dead_strip
	.p2align	3               ## @OBJC_SELECTOR_REFERENCES_.48
L_OBJC_SELECTOR_REFERENCES_.48:
	.quad	L_OBJC_METH_VAR_NAME_.47

	.section	__TEXT,__objc_methname,cstring_literals
L_OBJC_METH_VAR_NAME_.49:               ## @OBJC_METH_VAR_NAME_.49
	.asciz	"buttonAState"

	.section	__DATA,__objc_selrefs,literal_pointers,no_dead_strip
	.p2align	3               ## @OBJC_SELECTOR_REFERENCES_.50
L_OBJC_SELECTOR_REFERENCES_.50:
	.quad	L_OBJC_METH_VAR_NAME_.49

	.section	__TEXT,__objc_methname,cstring_literals
L_OBJC_METH_VAR_NAME_.51:               ## @OBJC_METH_VAR_NAME_.51
	.asciz	"buttonLeftShoulderState"

	.section	__DATA,__objc_selrefs,literal_pointers,no_dead_strip
	.p2align	3               ## @OBJC_SELECTOR_REFERENCES_.52
L_OBJC_SELECTOR_REFERENCES_.52:
	.quad	L_OBJC_METH_VAR_NAME_.51

	.section	__TEXT,__objc_methname,cstring_literals
L_OBJC_METH_VAR_NAME_.53:               ## @OBJC_METH_VAR_NAME_.53
	.asciz	"buttonRightShoulderState"

	.section	__DATA,__objc_selrefs,literal_pointers,no_dead_strip
	.p2align	3               ## @OBJC_SELECTOR_REFERENCES_.54
L_OBJC_SELECTOR_REFERENCES_.54:
	.quad	L_OBJC_METH_VAR_NAME_.53

	.section	__TEXT,__objc_methname,cstring_literals
L_OBJC_METH_VAR_NAME_.55:               ## @OBJC_METH_VAR_NAME_.55
	.asciz	"dpadX"

	.section	__DATA,__objc_selrefs,literal_pointers,no_dead_strip
	.p2align	3               ## @OBJC_SELECTOR_REFERENCES_.56
L_OBJC_SELECTOR_REFERENCES_.56:
	.quad	L_OBJC_METH_VAR_NAME_.55

	.section	__TEXT,__objc_methname,cstring_literals
L_OBJC_METH_VAR_NAME_.57:               ## @OBJC_METH_VAR_NAME_.57
	.asciz	"dpadY"

	.section	__DATA,__objc_selrefs,literal_pointers,no_dead_strip
	.p2align	3               ## @OBJC_SELECTOR_REFERENCES_.58
L_OBJC_SELECTOR_REFERENCES_.58:
	.quad	L_OBJC_METH_VAR_NAME_.57

	.section	__TEXT,__objc_methname,cstring_literals
L_OBJC_METH_VAR_NAME_.59:               ## @OBJC_METH_VAR_NAME_.59
	.asciz	"nextEventMatchingMask:untilDate:inMode:dequeue:"

	.section	__DATA,__objc_selrefs,literal_pointers,no_dead_strip
	.p2align	3               ## @OBJC_SELECTOR_REFERENCES_.60
L_OBJC_SELECTOR_REFERENCES_.60:
	.quad	L_OBJC_METH_VAR_NAME_.59

	.section	__TEXT,__objc_methname,cstring_literals
L_OBJC_METH_VAR_NAME_.61:               ## @OBJC_METH_VAR_NAME_.61
	.asciz	"type"

	.section	__DATA,__objc_selrefs,literal_pointers,no_dead_strip
	.p2align	3               ## @OBJC_SELECTOR_REFERENCES_.62
L_OBJC_SELECTOR_REFERENCES_.62:
	.quad	L_OBJC_METH_VAR_NAME_.61

	.section	__TEXT,__objc_methname,cstring_literals
L_OBJC_METH_VAR_NAME_.63:               ## @OBJC_METH_VAR_NAME_.63
	.asciz	"updateKeyboardControllerWith:"

	.section	__DATA,__objc_selrefs,literal_pointers,no_dead_strip
	.p2align	3               ## @OBJC_SELECTOR_REFERENCES_.64
L_OBJC_SELECTOR_REFERENCES_.64:
	.quad	L_OBJC_METH_VAR_NAME_.63

	.section	__TEXT,__objc_methname,cstring_literals
L_OBJC_METH_VAR_NAME_.65:               ## @OBJC_METH_VAR_NAME_.65
	.asciz	"sendEvent:"

	.section	__DATA,__objc_selrefs,literal_pointers,no_dead_strip
	.p2align	3               ## @OBJC_SELECTOR_REFERENCES_.66
L_OBJC_SELECTOR_REFERENCES_.66:
	.quad	L_OBJC_METH_VAR_NAME_.65

	.section	__TEXT,__cstring,cstring_literals
L_.str.67:                              ## @.str.67
	.asciz	"Handmade Finished Running"

	.section	__DATA,__objc_imageinfo,regular,no_dead_strip
L_OBJC_IMAGE_INFO:
	.long	0
	.long	64

	.file	25 "/Users/theodorebendixson1/AppDevelopment/Personal Projects/Handmade Game Tutorials OSX/Day7/build" "/Applications/Xcode.app/Contents/Developer/Platforms/MacOSX.platform/Developer/SDKs/MacOSX10.14.sdk/usr/include/objc/NSObject.h"
	.file	26 "/Users/theodorebendixson1/AppDevelopment/Personal Projects/Handmade Game Tutorials OSX/Day7/build" "/Applications/Xcode.app/Contents/Developer/Platforms/MacOSX.platform/Developer/SDKs/MacOSX10.14.sdk/System/Library/Frameworks/AppKit.framework/Headers/NSResponder.h"
	.file	27 "/Users/theodorebendixson1/AppDevelopment/Personal Projects/Handmade Game Tutorials OSX/Day7/build" "/Applications/Xcode.app/Contents/Developer/Platforms/MacOSX.platform/Developer/SDKs/MacOSX10.14.sdk/usr/include/objc/objc.h"
	.file	28 "/Users/theodorebendixson1/AppDevelopment/Personal Projects/Handmade Game Tutorials OSX/Day7/build" "/Applications/Xcode.app/Contents/Developer/Platforms/MacOSX.platform/Developer/SDKs/MacOSX10.14.sdk/usr/include/objc/NSObjCRuntime.h"
	.file	29 "/Users/theodorebendixson1/AppDevelopment/Personal Projects/Handmade Game Tutorials OSX/Day7/build" "/Applications/Xcode.app/Contents/Developer/Platforms/MacOSX.platform/Developer/SDKs/MacOSX10.14.sdk/System/Library/Frameworks/Foundation.framework/Headers/NSString.h"
	.file	30 "/Users/theodorebendixson1/AppDevelopment/Personal Projects/Handmade Game Tutorials OSX/Day7/build" "/Applications/Xcode.app/Contents/Developer/Platforms/MacOSX.platform/Developer/SDKs/MacOSX10.14.sdk/System/Library/Frameworks/AppKit.framework/Headers/NSMenu.h"
	.file	31 "/Users/theodorebendixson1/AppDevelopment/Personal Projects/Handmade Game Tutorials OSX/Day7/build" "/Applications/Xcode.app/Contents/Developer/Platforms/MacOSX.platform/Developer/SDKs/MacOSX10.14.sdk/System/Library/Frameworks/Foundation.framework/Headers/NSArray.h"
	.file	32 "/Users/theodorebendixson1/AppDevelopment/Personal Projects/Handmade Game Tutorials OSX/Day7/build" "/Applications/Xcode.app/Contents/Developer/Platforms/MacOSX.platform/Developer/SDKs/MacOSX10.14.sdk/System/Library/Frameworks/AppKit.framework/Headers/NSMenuItem.h"
	.file	33 "/Users/theodorebendixson1/AppDevelopment/Personal Projects/Handmade Game Tutorials OSX/Day7/build" "/Applications/Xcode.app/Contents/Developer/Platforms/MacOSX.platform/Developer/SDKs/MacOSX10.14.sdk/System/Library/Frameworks/Foundation.framework/Headers/NSAttributedString.h"
	.file	34 "/Users/theodorebendixson1/AppDevelopment/Personal Projects/Handmade Game Tutorials OSX/Day7/build" "/Applications/Xcode.app/Contents/Developer/Platforms/MacOSX.platform/Developer/SDKs/MacOSX10.14.sdk/System/Library/Frameworks/AppKit.framework/Headers/NSImage.h"
	.file	35 "/Users/theodorebendixson1/AppDevelopment/Personal Projects/Handmade Game Tutorials OSX/Day7/build" "/Applications/Xcode.app/Contents/Developer/Platforms/MacOSX.platform/Developer/SDKs/MacOSX10.14.sdk/System/Library/Frameworks/AppKit.framework/Headers/NSColor.h"
	.file	36 "/Users/theodorebendixson1/AppDevelopment/Personal Projects/Handmade Game Tutorials OSX/Day7/build" "/Applications/Xcode.app/Contents/Developer/Platforms/MacOSX.platform/Developer/SDKs/MacOSX10.14.sdk/System/Library/Frameworks/AppKit.framework/Headers/NSCell.h"
	.file	37 "/Users/theodorebendixson1/AppDevelopment/Personal Projects/Handmade Game Tutorials OSX/Day7/build" "/Applications/Xcode.app/Contents/Developer/Platforms/MacOSX.platform/Developer/SDKs/MacOSX10.14.sdk/System/Library/Frameworks/AppKit.framework/Headers/NSColorList.h"
	.file	38 "/Users/theodorebendixson1/AppDevelopment/Personal Projects/Handmade Game Tutorials OSX/Day7/build" "/Applications/Xcode.app/Contents/Developer/Platforms/MacOSX.platform/Developer/SDKs/MacOSX10.14.sdk/System/Library/Frameworks/Foundation.framework/Headers/NSData.h"
	.file	39 "/Users/theodorebendixson1/AppDevelopment/Personal Projects/Handmade Game Tutorials OSX/Day7/build" "/Applications/Xcode.app/Contents/Developer/Platforms/MacOSX.platform/Developer/SDKs/MacOSX10.14.sdk/System/Library/Frameworks/AppKit.framework/Headers/NSColorSpace.h"
	.file	40 "/Users/theodorebendixson1/AppDevelopment/Personal Projects/Handmade Game Tutorials OSX/Day7/build" "/Applications/Xcode.app/Contents/Developer/Platforms/MacOSX.platform/Developer/SDKs/MacOSX10.14.sdk/System/Library/Frameworks/CoreGraphics.framework/Headers/CGColorSpace.h"
	.file	41 "/Users/theodorebendixson1/AppDevelopment/Personal Projects/Handmade Game Tutorials OSX/Day7/build" "/Applications/Xcode.app/Contents/Developer/Platforms/MacOSX.platform/Developer/SDKs/MacOSX10.14.sdk/System/Library/Frameworks/CoreGraphics.framework/Headers/CGColor.h"
	.file	42 "/Users/theodorebendixson1/AppDevelopment/Personal Projects/Handmade Game Tutorials OSX/Day7/build" "/Applications/Xcode.app/Contents/Developer/Platforms/MacOSX.platform/Developer/SDKs/MacOSX10.14.sdk/System/Library/Frameworks/AppKit.framework/Headers/NSView.h"
	.file	43 "/Users/theodorebendixson1/AppDevelopment/Personal Projects/Handmade Game Tutorials OSX/Day7/build" "/Applications/Xcode.app/Contents/Developer/Platforms/MacOSX.platform/Developer/SDKs/MacOSX10.14.sdk/System/Library/Frameworks/QuartzCore.framework/Headers/CALayer.h"
	.file	44 "/Users/theodorebendixson1/AppDevelopment/Personal Projects/Handmade Game Tutorials OSX/Day7/build" "/Applications/Xcode.app/Contents/Developer/Platforms/MacOSX.platform/Developer/SDKs/MacOSX10.14.sdk/System/Library/Frameworks/QuartzCore.framework/Headers/CATransform3D.h"
	.file	45 "/Users/theodorebendixson1/AppDevelopment/Personal Projects/Handmade Game Tutorials OSX/Day7/build" "/Applications/Xcode.app/Contents/Developer/Platforms/MacOSX.platform/Developer/SDKs/MacOSX10.14.sdk/System/Library/Frameworks/CoreGraphics.framework/Headers/CGPath.h"
	.file	46 "/Users/theodorebendixson1/AppDevelopment/Personal Projects/Handmade Game Tutorials OSX/Day7/build" "/Applications/Xcode.app/Contents/Developer/Platforms/MacOSX.platform/Developer/SDKs/MacOSX10.14.sdk/System/Library/Frameworks/Foundation.framework/Headers/NSDictionary.h"
	.file	47 "/Users/theodorebendixson1/AppDevelopment/Personal Projects/Handmade Game Tutorials OSX/Day7/build" "/Applications/Xcode.app/Contents/Developer/Platforms/MacOSX.platform/Developer/SDKs/MacOSX10.14.sdk/usr/include/sys/_types/_int32_t.h"
	.file	48 "/Users/theodorebendixson1/AppDevelopment/Personal Projects/Handmade Game Tutorials OSX/Day7/build" "/Applications/Xcode.app/Contents/Developer/Platforms/MacOSX.platform/Developer/SDKs/MacOSX10.14.sdk/System/Library/Frameworks/AppKit.framework/Headers/NSShadow.h"
	.file	49 "/Users/theodorebendixson1/AppDevelopment/Personal Projects/Handmade Game Tutorials OSX/Day7/build" "/Applications/Xcode.app/Contents/Developer/Platforms/MacOSX.platform/Developer/SDKs/MacOSX10.14.sdk/System/Library/Frameworks/AppKit.framework/Headers/NSScrollView.h"
	.file	50 "/Users/theodorebendixson1/AppDevelopment/Personal Projects/Handmade Game Tutorials OSX/Day7/build" "/Applications/Xcode.app/Contents/Developer/Platforms/MacOSX.platform/Developer/SDKs/MacOSX10.14.sdk/System/Library/Frameworks/AppKit.framework/Headers/NSClipView.h"
	.file	51 "/Users/theodorebendixson1/AppDevelopment/Personal Projects/Handmade Game Tutorials OSX/Day7/build" "/Applications/Xcode.app/Contents/Developer/Platforms/MacOSX.platform/Developer/SDKs/MacOSX10.14.sdk/System/Library/Frameworks/AppKit.framework/Headers/NSCursor.h"
	.file	52 "/Users/theodorebendixson1/AppDevelopment/Personal Projects/Handmade Game Tutorials OSX/Day7/build" "/Applications/Xcode.app/Contents/Developer/Platforms/MacOSX.platform/Developer/SDKs/MacOSX10.14.sdk/System/Library/Frameworks/AppKit.framework/Headers/NSControl.h"
	.file	53 "/Users/theodorebendixson1/AppDevelopment/Personal Projects/Handmade Game Tutorials OSX/Day7/build" "/Applications/Xcode.app/Contents/Developer/Platforms/MacOSX.platform/Developer/SDKs/MacOSX10.14.sdk/System/Library/Frameworks/Foundation.framework/Headers/NSFormatter.h"
	.file	54 "/Users/theodorebendixson1/AppDevelopment/Personal Projects/Handmade Game Tutorials OSX/Day7/build" "/Applications/Xcode.app/Contents/Developer/Platforms/MacOSX.platform/Developer/SDKs/MacOSX10.14.sdk/System/Library/Frameworks/AppKit.framework/Headers/NSScroller.h"
	.file	55 "/Users/theodorebendixson1/AppDevelopment/Personal Projects/Handmade Game Tutorials OSX/Day7/build" "/Applications/Xcode.app/Contents/Developer/Platforms/MacOSX.platform/Developer/SDKs/MacOSX10.14.sdk/System/Library/Frameworks/AppKit.framework/Headers/NSRulerView.h"
	.file	56 "/Users/theodorebendixson1/AppDevelopment/Personal Projects/Handmade Game Tutorials OSX/Day7/build" "/Applications/Xcode.app/Contents/Developer/Platforms/MacOSX.platform/Developer/SDKs/MacOSX10.14.sdk/System/Library/Frameworks/AppKit.framework/Headers/NSRulerMarker.h"
	.file	57 "/Users/theodorebendixson1/AppDevelopment/Personal Projects/Handmade Game Tutorials OSX/Day7/build" "/Applications/Xcode.app/Contents/Developer/Platforms/MacOSX.platform/Developer/SDKs/MacOSX10.14.sdk/System/Library/Frameworks/AppKit.framework/Headers/NSTextInputContext.h"
	.file	58 "/Users/theodorebendixson1/AppDevelopment/Personal Projects/Handmade Game Tutorials OSX/Day7/build" "/Applications/Xcode.app/Contents/Developer/Platforms/MacOSX.platform/Developer/SDKs/MacOSX10.14.sdk/System/Library/Frameworks/AppKit.framework/Headers/NSUserInterfaceLayout.h"
	.file	59 "/Users/theodorebendixson1/AppDevelopment/Personal Projects/Handmade Game Tutorials OSX/Day7/build" "/Applications/Xcode.app/Contents/Developer/Platforms/MacOSX.platform/Developer/SDKs/MacOSX10.14.sdk/System/Library/Frameworks/AppKit.framework/Headers/NSFont.h"
	.file	60 "/Users/theodorebendixson1/AppDevelopment/Personal Projects/Handmade Game Tutorials OSX/Day7/build" "/Applications/Xcode.app/Contents/Developer/Platforms/MacOSX.platform/Developer/SDKs/MacOSX10.14.sdk/System/Library/Frameworks/AppKit.framework/Headers/NSFontDescriptor.h"
	.file	61 "/Users/theodorebendixson1/AppDevelopment/Personal Projects/Handmade Game Tutorials OSX/Day7/build" "/Applications/Xcode.app/Contents/Developer/Platforms/MacOSX.platform/Developer/SDKs/MacOSX10.14.sdk/System/Library/Frameworks/Foundation.framework/Headers/NSAffineTransform.h"
	.file	62 "/Users/theodorebendixson1/AppDevelopment/Personal Projects/Handmade Game Tutorials OSX/Day7/build" "/Applications/Xcode.app/Contents/Developer/Platforms/MacOSX.platform/Developer/SDKs/MacOSX10.14.sdk/System/Library/Frameworks/Foundation.framework/Headers/NSCharacterSet.h"
	.file	63 "/Users/theodorebendixson1/AppDevelopment/Personal Projects/Handmade Game Tutorials OSX/Day7/build" "/Applications/Xcode.app/Contents/Developer/Platforms/MacOSX.platform/Developer/SDKs/MacOSX10.14.sdk/System/Library/Frameworks/Foundation.framework/Headers/NSURL.h"
	.file	64 "/Users/theodorebendixson1/AppDevelopment/Personal Projects/Handmade Game Tutorials OSX/Day7/build" "/Applications/Xcode.app/Contents/Developer/Platforms/MacOSX.platform/Developer/SDKs/MacOSX10.14.sdk/System/Library/Frameworks/Foundation.framework/Headers/NSValue.h"
	.file	65 "/Users/theodorebendixson1/AppDevelopment/Personal Projects/Handmade Game Tutorials OSX/Day7/build" "/Applications/Xcode.app/Contents/Developer/Platforms/MacOSX.platform/Developer/SDKs/MacOSX10.14.sdk/System/Library/Frameworks/AppKit.framework/Headers/NSDockTile.h"
	.file	66 "/Users/theodorebendixson1/AppDevelopment/Personal Projects/Handmade Game Tutorials OSX/Day7/build" "/Applications/Xcode.app/Contents/Developer/Platforms/MacOSX.platform/Developer/SDKs/MacOSX10.14.sdk/System/Library/Frameworks/AppKit.framework/Headers/NSScreen.h"
	.file	67 "/Users/theodorebendixson1/AppDevelopment/Personal Projects/Handmade Game Tutorials OSX/Day7/build" "/Applications/Xcode.app/Contents/Developer/Platforms/MacOSX.platform/Developer/SDKs/MacOSX10.14.sdk/System/Library/Frameworks/AppKit.framework/Headers/NSNib.h"
	.file	68 "/Users/theodorebendixson1/AppDevelopment/Personal Projects/Handmade Game Tutorials OSX/Day7/build" "/Applications/Xcode.app/Contents/Developer/Platforms/MacOSX.platform/Developer/SDKs/MacOSX10.14.sdk/System/Library/Frameworks/AppKit.framework/Headers/NSWindowController.h"
	.file	69 "/Users/theodorebendixson1/AppDevelopment/Personal Projects/Handmade Game Tutorials OSX/Day7/build" "/Applications/Xcode.app/Contents/Developer/Platforms/MacOSX.platform/Developer/SDKs/MacOSX10.14.sdk/System/Library/Frameworks/AppKit.framework/Headers/NSViewController.h"
	.file	70 "/Users/theodorebendixson1/AppDevelopment/Personal Projects/Handmade Game Tutorials OSX/Day7/build" "/Applications/Xcode.app/Contents/Developer/Platforms/MacOSX.platform/Developer/SDKs/MacOSX10.14.sdk/System/Library/Frameworks/Foundation.framework/Headers/NSBundle.h"
	.file	71 "/Users/theodorebendixson1/AppDevelopment/Personal Projects/Handmade Game Tutorials OSX/Day7/build" "/Applications/Xcode.app/Contents/Developer/Platforms/MacOSX.platform/Developer/SDKs/MacOSX10.14.sdk/System/Library/Frameworks/Foundation.framework/Headers/NSPointerFunctions.h"
	.file	72 "/Users/theodorebendixson1/AppDevelopment/Personal Projects/Handmade Game Tutorials OSX/Day7/build" "/Applications/Xcode.app/Contents/Developer/Platforms/MacOSX.platform/Developer/SDKs/MacOSX10.14.sdk/System/Library/Frameworks/Foundation.framework/Headers/NSPointerArray.h"
	.file	73 "/Users/theodorebendixson1/AppDevelopment/Personal Projects/Handmade Game Tutorials OSX/Day7/build" "/Applications/Xcode.app/Contents/Developer/Platforms/MacOSX.platform/Developer/SDKs/MacOSX10.14.sdk/System/Library/Frameworks/AppKit.framework/Headers/NSDocument.h"
	.file	74 "/Users/theodorebendixson1/AppDevelopment/Personal Projects/Handmade Game Tutorials OSX/Day7/build" "/Applications/Xcode.app/Contents/Developer/Platforms/MacOSX.platform/Developer/SDKs/MacOSX10.14.sdk/System/Library/Frameworks/Foundation.framework/Headers/NSDate.h"
	.file	75 "/Users/theodorebendixson1/AppDevelopment/Personal Projects/Handmade Game Tutorials OSX/Day7/build" "/Applications/Xcode.app/Contents/Developer/Platforms/MacOSX.platform/Developer/SDKs/MacOSX10.14.sdk/System/Library/Frameworks/AppKit.framework/Headers/NSPrintInfo.h"
	.file	76 "/Users/theodorebendixson1/AppDevelopment/Personal Projects/Handmade Game Tutorials OSX/Day7/build" "/Applications/Xcode.app/Contents/Developer/Platforms/MacOSX.platform/Developer/SDKs/MacOSX10.14.sdk/System/Library/Frameworks/AppKit.framework/Headers/NSPrinter.h"
	.file	77 "/Users/theodorebendixson1/AppDevelopment/Personal Projects/Handmade Game Tutorials OSX/Day7/build" "/Applications/Xcode.app/Contents/Developer/Platforms/MacOSX.platform/Developer/SDKs/MacOSX10.14.sdk/System/Library/Frameworks/AppKit.framework/Headers/NSPrintOperation.h"
	.file	78 "/Users/theodorebendixson1/AppDevelopment/Personal Projects/Handmade Game Tutorials OSX/Day7/build" "/Applications/Xcode.app/Contents/Developer/Platforms/MacOSX.platform/Developer/SDKs/MacOSX10.14.sdk/System/Library/Frameworks/AppKit.framework/Headers/NSPrintPanel.h"
	.file	79 "/Users/theodorebendixson1/AppDevelopment/Personal Projects/Handmade Game Tutorials OSX/Day7/build" "/Applications/Xcode.app/Contents/Developer/Platforms/MacOSX.platform/Developer/SDKs/MacOSX10.14.sdk/System/Library/Frameworks/AppKit.framework/Headers/NSHelpManager.h"
	.file	80 "/Users/theodorebendixson1/AppDevelopment/Personal Projects/Handmade Game Tutorials OSX/Day7/build" "/Applications/Xcode.app/Contents/Developer/Platforms/MacOSX.platform/Developer/SDKs/MacOSX10.14.sdk/System/Library/Frameworks/AppKit.framework/Headers/NSPDFPanel.h"
	.file	81 "/Users/theodorebendixson1/AppDevelopment/Personal Projects/Handmade Game Tutorials OSX/Day7/build" "/Applications/Xcode.app/Contents/Developer/Platforms/MacOSX.platform/Developer/SDKs/MacOSX10.14.sdk/System/Library/Frameworks/AppKit.framework/Headers/NSGraphicsContext.h"
	.file	82 "/Users/theodorebendixson1/AppDevelopment/Personal Projects/Handmade Game Tutorials OSX/Day7/build" "/Applications/Xcode.app/Contents/Developer/Platforms/MacOSX.platform/Developer/SDKs/MacOSX10.14.sdk/System/Library/Frameworks/CoreGraphics.framework/Headers/CGContext.h"
	.file	83 "/Users/theodorebendixson1/AppDevelopment/Personal Projects/Handmade Game Tutorials OSX/Day7/build" "/Applications/Xcode.app/Contents/Developer/Platforms/MacOSX.platform/Developer/SDKs/MacOSX10.14.sdk/System/Library/Frameworks/Foundation.framework/Headers/NSRange.h"
	.file	84 "/Users/theodorebendixson1/AppDevelopment/Personal Projects/Handmade Game Tutorials OSX/Day7/build" "/Applications/Xcode.app/Contents/Developer/Platforms/MacOSX.platform/Developer/SDKs/MacOSX10.14.sdk/System/Library/Frameworks/Foundation.framework/Headers/NSUndoManager.h"
	.file	85 "/Users/theodorebendixson1/AppDevelopment/Personal Projects/Handmade Game Tutorials OSX/Day7/build" "/Applications/Xcode.app/Contents/Developer/Platforms/MacOSX.platform/Developer/SDKs/MacOSX10.14.sdk/usr/include/_types/_uint64_t.h"
	.file	86 "/Users/theodorebendixson1/AppDevelopment/Personal Projects/Handmade Game Tutorials OSX/Day7/build" "/Applications/Xcode.app/Contents/Developer/Platforms/MacOSX.platform/Developer/SDKs/MacOSX10.14.sdk/System/Library/Frameworks/AppKit.framework/Headers/NSText.h"
	.file	87 "/Users/theodorebendixson1/AppDevelopment/Personal Projects/Handmade Game Tutorials OSX/Day7/build" "/Applications/Xcode.app/Contents/Developer/Platforms/MacOSX.platform/Developer/SDKs/MacOSX10.14.sdk/System/Library/Frameworks/AppKit.framework/Headers/NSParagraphStyle.h"
	.file	88 "/Users/theodorebendixson1/AppDevelopment/Personal Projects/Handmade Game Tutorials OSX/Day7/build" "/Applications/Xcode.app/Contents/Developer/Platforms/MacOSX.platform/Developer/SDKs/MacOSX10.14.sdk/System/Library/Frameworks/AppKit.framework/Headers/NSActionCell.h"
	.file	89 "/Users/theodorebendixson1/AppDevelopment/Personal Projects/Handmade Game Tutorials OSX/Day7/build" "/Applications/Xcode.app/Contents/Developer/Platforms/MacOSX.platform/Developer/SDKs/MacOSX10.14.sdk/System/Library/Frameworks/AppKit.framework/Headers/NSButtonCell.h"
	.file	90 "/Users/theodorebendixson1/AppDevelopment/Personal Projects/Handmade Game Tutorials OSX/Day7/build" "/Applications/Xcode.app/Contents/Developer/Platforms/MacOSX.platform/Developer/SDKs/MacOSX10.14.sdk/System/Library/Frameworks/AppKit.framework/Headers/NSToolbar.h"
	.file	91 "/Users/theodorebendixson1/AppDevelopment/Personal Projects/Handmade Game Tutorials OSX/Day7/build" "/Applications/Xcode.app/Contents/Developer/Platforms/MacOSX.platform/Developer/SDKs/MacOSX10.14.sdk/System/Library/Frameworks/AppKit.framework/Headers/NSWindowTab.h"
	.file	92 "/Users/theodorebendixson1/AppDevelopment/Personal Projects/Handmade Game Tutorials OSX/Day7/build" "/Applications/Xcode.app/Contents/Developer/Platforms/MacOSX.platform/Developer/SDKs/MacOSX10.14.sdk/System/Library/Frameworks/AppKit.framework/Headers/NSWindowTabGroup.h"
	.file	93 "/Users/theodorebendixson1/AppDevelopment/Personal Projects/Handmade Game Tutorials OSX/Day7/build" "/Applications/Xcode.app/Contents/Developer/Platforms/MacOSX.platform/Developer/SDKs/MacOSX10.14.sdk/System/Library/Frameworks/Foundation.framework/Headers/NSSet.h"
	.file	94 "/Users/theodorebendixson1/AppDevelopment/Personal Projects/Handmade Game Tutorials OSX/Day7/build" "/Applications/Xcode.app/Contents/Developer/Platforms/MacOSX.platform/Developer/SDKs/MacOSX10.14.sdk/System/Library/Frameworks/AppKit.framework/Headers/NSImageRep.h"
	.file	95 "/Users/theodorebendixson1/AppDevelopment/Personal Projects/Handmade Game Tutorials OSX/Day7/build" "/Applications/Xcode.app/Contents/Developer/Platforms/MacOSX.platform/Developer/SDKs/MacOSX10.14.sdk/System/Library/Frameworks/AppKit.framework/Headers/NSBitmapImageRep.h"
	.file	96 "/Users/theodorebendixson1/AppDevelopment/Personal Projects/Handmade Game Tutorials OSX/Day7/build" "/Applications/Xcode.app/Contents/Developer/Platforms/MacOSX.platform/Developer/SDKs/MacOSX10.14.sdk/System/Library/Frameworks/CoreGraphics.framework/Headers/CGImage.h"
	.file	97 "/Users/theodorebendixson1/AppDevelopment/Personal Projects/Handmade Game Tutorials OSX/Day7/build" "../handmade/code/osx_handmade_windows.h"
	.file	98 "/Users/theodorebendixson1/AppDevelopment/Personal Projects/Handmade Game Tutorials OSX/Day7/build" "/Applications/Xcode.app/Contents/Developer/Platforms/MacOSX.platform/Developer/SDKs/MacOSX10.14.sdk/System/Library/Frameworks/AppKit.framework/Headers/NSTrackingArea.h"
	.file	99 "/Users/theodorebendixson1/AppDevelopment/Personal Projects/Handmade Game Tutorials OSX/Day7/build" "/Applications/Xcode.app/Contents/Developer/Platforms/MacOSX.platform/Developer/SDKs/MacOSX10.14.sdk/System/Library/Frameworks/CoreGraphics.framework/Headers/CGEventTypes.h"