	.section	__TEXT,__text,regular,pure_instructions
	.build_version macos, 10, 14	sdk_version 10, 14
	.file	1 "/Users/theodorebendixson1/AppDevelopment/Personal Projects/Handmade Game Tutorials OSX/Day7/build" "../handmade/code/osx_handmade_controllers.m"
	.file	2 "/Users/theodorebendixson1/AppDevelopment/Personal Projects/Handmade Game Tutorials OSX/Day7/build" "/Applications/Xcode.app/Contents/Developer/Platforms/MacOSX.platform/Developer/SDKs/MacOSX10.14.sdk/System/Library/Frameworks/IOKit.framework/Headers/hid/IOHIDManager.h"
	.file	3 "/Users/theodorebendixson1/AppDevelopment/Personal Projects/Handmade Game Tutorials OSX/Day7/build" "/Applications/Xcode.app/Contents/Developer/Platforms/MacOSX.platform/Developer/SDKs/MacOSX10.14.sdk/usr/include/objc/NSObject.h"
	.file	4 "/Users/theodorebendixson1/AppDevelopment/Personal Projects/Handmade Game Tutorials OSX/Day7/build" "/Applications/Xcode.app/Contents/Developer/Platforms/MacOSX.platform/Developer/SDKs/MacOSX10.14.sdk/usr/include/objc/NSObjCRuntime.h"
	.file	5 "/Users/theodorebendixson1/AppDevelopment/Personal Projects/Handmade Game Tutorials OSX/Day7/build" "../handmade/code/osx_handmade_controllers.h"
	.file	6 "/Users/theodorebendixson1/AppDevelopment/Personal Projects/Handmade Game Tutorials OSX/Day7/build" "/Applications/Xcode.app/Contents/Developer/Platforms/MacOSX.platform/Developer/SDKs/MacOSX10.14.sdk/usr/include/objc/objc.h"
	.file	7 "/Users/theodorebendixson1/AppDevelopment/Personal Projects/Handmade Game Tutorials OSX/Day7/build" "/Applications/Xcode.app/Contents/Developer/Platforms/MacOSX.platform/Developer/SDKs/MacOSX10.14.sdk/System/Library/Frameworks/CoreFoundation.framework/Headers/CFBase.h"
	.file	8 "/Users/theodorebendixson1/AppDevelopment/Personal Projects/Handmade Game Tutorials OSX/Day7/build" "/Applications/Xcode.app/Contents/Developer/Platforms/MacOSX.platform/Developer/SDKs/MacOSX10.14.sdk/System/Library/Frameworks/IOKit.framework/Headers/hid/IOHIDKeys.h"
	.file	9 "/Users/theodorebendixson1/AppDevelopment/Personal Projects/Handmade Game Tutorials OSX/Day7/build" "/Applications/Xcode.app/Contents/Developer/Platforms/MacOSX.platform/Developer/SDKs/MacOSX10.14.sdk/System/Library/Frameworks/IOKit.framework/Headers/hid/IOHIDUsageTables.h"
	.file	10 "/Users/theodorebendixson1/AppDevelopment/Personal Projects/Handmade Game Tutorials OSX/Day7/build" "/Applications/Xcode.app/Contents/Developer/Platforms/MacOSX.platform/Developer/SDKs/MacOSX10.14.sdk/System/Library/Frameworks/AppKit.framework/Headers/NSEvent.h"
	.file	11 "/Users/theodorebendixson1/AppDevelopment/Personal Projects/Handmade Game Tutorials OSX/Day7/build" "/Applications/Xcode.app/Contents/Developer/Platforms/MacOSX.platform/Developer/SDKs/MacOSX10.14.sdk/usr/include/sys/_types/_int32_t.h"
	.file	12 "/Users/theodorebendixson1/AppDevelopment/Personal Projects/Handmade Game Tutorials OSX/Day7/build" "/Applications/Xcode.app/Contents/Developer/Platforms/MacOSX.platform/Developer/SDKs/MacOSX10.14.sdk/System/Library/Frameworks/AppKit.framework/Headers/NSGraphics.h"
	.file	13 "/Users/theodorebendixson1/AppDevelopment/Personal Projects/Handmade Game Tutorials OSX/Day7/build" "/Applications/Xcode.app/Contents/Developer/Platforms/MacOSX.platform/Developer/SDKs/MacOSX10.14.sdk/System/Library/Frameworks/AppKit.framework/Headers/NSWindow.h"
	.file	14 "/Users/theodorebendixson1/AppDevelopment/Personal Projects/Handmade Game Tutorials OSX/Day7/build" "/Applications/Xcode.app/Contents/Developer/Platforms/MacOSX.platform/Developer/SDKs/MacOSX10.14.sdk/System/Library/Frameworks/AppKit.framework/Headers/NSUserInterfaceLayout.h"
	.file	15 "/Users/theodorebendixson1/AppDevelopment/Personal Projects/Handmade Game Tutorials OSX/Day7/build" "/Applications/Xcode.app/Contents/Developer/Platforms/MacOSX.platform/Developer/SDKs/MacOSX10.14.sdk/System/Library/Frameworks/AppKit.framework/Headers/NSTrackingArea.h"
	.file	16 "/Users/theodorebendixson1/AppDevelopment/Personal Projects/Handmade Game Tutorials OSX/Day7/build" "/Applications/Xcode.app/Contents/Developer/Platforms/MacOSX.platform/Developer/SDKs/MacOSX10.14.sdk/System/Library/Frameworks/AppKit.framework/Headers/NSView.h"
	.file	17 "/Users/theodorebendixson1/AppDevelopment/Personal Projects/Handmade Game Tutorials OSX/Day7/build" "/Applications/Xcode.app/Contents/Developer/Platforms/MacOSX.platform/Developer/SDKs/MacOSX10.14.sdk/System/Library/Frameworks/AppKit.framework/Headers/NSColor.h"
	.file	18 "/Users/theodorebendixson1/AppDevelopment/Personal Projects/Handmade Game Tutorials OSX/Day7/build" "/Applications/Xcode.app/Contents/Developer/Platforms/MacOSX.platform/Developer/SDKs/MacOSX10.14.sdk/System/Library/Frameworks/AppKit.framework/Headers/NSCell.h"
	.file	19 "/Users/theodorebendixson1/AppDevelopment/Personal Projects/Handmade Game Tutorials OSX/Day7/build" "/Applications/Xcode.app/Contents/Developer/Platforms/MacOSX.platform/Developer/SDKs/MacOSX10.14.sdk/System/Library/Frameworks/AppKit.framework/Headers/NSImage.h"
	.file	20 "/Users/theodorebendixson1/AppDevelopment/Personal Projects/Handmade Game Tutorials OSX/Day7/build" "/Applications/Xcode.app/Contents/Developer/Platforms/MacOSX.platform/Developer/SDKs/MacOSX10.14.sdk/System/Library/Frameworks/AppKit.framework/Headers/NSColorSpace.h"
	.file	21 "/Users/theodorebendixson1/AppDevelopment/Personal Projects/Handmade Game Tutorials OSX/Day7/build" "/Applications/Xcode.app/Contents/Developer/Platforms/MacOSX.platform/Developer/SDKs/MacOSX10.14.sdk/System/Library/Frameworks/AppKit.framework/Headers/NSToolbar.h"
	.file	22 "/Users/theodorebendixson1/AppDevelopment/Personal Projects/Handmade Game Tutorials OSX/Day7/build" "/Applications/Xcode.app/Contents/Developer/Platforms/MacOSX.platform/Developer/SDKs/MacOSX10.14.sdk/System/Library/Frameworks/QuartzCore.framework/Headers/CALayer.h"
	.file	23 "/Users/theodorebendixson1/AppDevelopment/Personal Projects/Handmade Game Tutorials OSX/Day7/build" "/Applications/Xcode.app/Contents/Developer/Platforms/MacOSX.platform/Developer/SDKs/MacOSX10.14.sdk/System/Library/Frameworks/AppKit.framework/Headers/NSScroller.h"
	.file	24 "/Users/theodorebendixson1/AppDevelopment/Personal Projects/Handmade Game Tutorials OSX/Day7/build" "/Applications/Xcode.app/Contents/Developer/Platforms/MacOSX.platform/Developer/SDKs/MacOSX10.14.sdk/System/Library/Frameworks/AppKit.framework/Headers/NSScrollView.h"
	.file	25 "/Users/theodorebendixson1/AppDevelopment/Personal Projects/Handmade Game Tutorials OSX/Day7/build" "/Applications/Xcode.app/Contents/Developer/Platforms/MacOSX.platform/Developer/SDKs/MacOSX10.14.sdk/System/Library/Frameworks/AppKit.framework/Headers/NSRulerView.h"
	.file	26 "/Users/theodorebendixson1/AppDevelopment/Personal Projects/Handmade Game Tutorials OSX/Day7/build" "/Applications/Xcode.app/Contents/Developer/Platforms/MacOSX.platform/Developer/SDKs/MacOSX10.14.sdk/System/Library/Frameworks/AppKit.framework/Headers/NSPrintInfo.h"
	.file	27 "/Users/theodorebendixson1/AppDevelopment/Personal Projects/Handmade Game Tutorials OSX/Day7/build" "/Applications/Xcode.app/Contents/Developer/Platforms/MacOSX.platform/Developer/SDKs/MacOSX10.14.sdk/System/Library/Frameworks/AppKit.framework/Headers/NSPrintOperation.h"
	.file	28 "/Users/theodorebendixson1/AppDevelopment/Personal Projects/Handmade Game Tutorials OSX/Day7/build" "/Applications/Xcode.app/Contents/Developer/Platforms/MacOSX.platform/Developer/SDKs/MacOSX10.14.sdk/System/Library/Frameworks/AppKit.framework/Headers/NSText.h"
	.file	29 "/Users/theodorebendixson1/AppDevelopment/Personal Projects/Handmade Game Tutorials OSX/Day7/build" "/Applications/Xcode.app/Contents/Developer/Platforms/MacOSX.platform/Developer/SDKs/MacOSX10.14.sdk/System/Library/Frameworks/AppKit.framework/Headers/NSParagraphStyle.h"
	.file	30 "/Users/theodorebendixson1/AppDevelopment/Personal Projects/Handmade Game Tutorials OSX/Day7/build" "/Applications/Xcode.app/Contents/Developer/Platforms/MacOSX.platform/Developer/SDKs/MacOSX10.14.sdk/usr/include/_types/_uint32_t.h"
	.file	31 "/Users/theodorebendixson1/AppDevelopment/Personal Projects/Handmade Game Tutorials OSX/Day7/build" "/Applications/Xcode.app/Contents/Developer/Platforms/MacOSX.platform/Developer/SDKs/MacOSX10.14.sdk/System/Library/Frameworks/AppKit.framework/Headers/NSFontDescriptor.h"
	.file	32 "/Users/theodorebendixson1/AppDevelopment/Personal Projects/Handmade Game Tutorials OSX/Day7/build" "/Applications/Xcode.app/Contents/Developer/Platforms/MacOSX.platform/Developer/SDKs/MacOSX10.14.sdk/System/Library/Frameworks/AppKit.framework/Headers/NSPrintPanel.h"
	.file	33 "/Users/theodorebendixson1/AppDevelopment/Personal Projects/Handmade Game Tutorials OSX/Day7/build" "/Applications/Xcode.app/Contents/Developer/Platforms/MacOSX.platform/Developer/SDKs/MacOSX10.14.sdk/System/Library/Frameworks/AppKit.framework/Headers/NSPDFPanel.h"
	.file	34 "/Users/theodorebendixson1/AppDevelopment/Personal Projects/Handmade Game Tutorials OSX/Day7/build" "/Applications/Xcode.app/Contents/Developer/Platforms/MacOSX.platform/Developer/SDKs/MacOSX10.14.sdk/System/Library/Frameworks/CoreFoundation.framework/Headers/CFArray.h"
	.file	35 "/Users/theodorebendixson1/AppDevelopment/Personal Projects/Handmade Game Tutorials OSX/Day7/build" "/Applications/Xcode.app/Contents/Developer/Platforms/MacOSX.platform/Developer/SDKs/MacOSX10.14.sdk/System/Library/Frameworks/Foundation.framework/Headers/NSValue.h"
	.file	36 "/Users/theodorebendixson1/AppDevelopment/Personal Projects/Handmade Game Tutorials OSX/Day7/build" "/Applications/Xcode.app/Contents/Developer/Platforms/MacOSX.platform/Developer/SDKs/MacOSX10.14.sdk/System/Library/Frameworks/Foundation.framework/Headers/NSString.h"
	.p2align	4, 0x90         ## -- Begin function +[OSXHandmadeController initialize]
"+[OSXHandmadeController initialize]":  ## @"\01+[OSXHandmadeController initialize]"
Lfunc_begin0:
	.loc	1 40 0                  ## ../handmade/code/osx_handmade_controllers.m:40:0
	.cfi_startproc
## %bb.0:
	pushq	%rbp
	.cfi_def_cfa_offset 16
	.cfi_offset %rbp, -16
	movq	%rsp, %rbp
	.cfi_def_cfa_register %rbp
	subq	$144, %rsp
	xorl	%eax, %eax
	movq	_kCFAllocatorDefault@GOTPCREL(%rip), %rcx
	movq	___stack_chk_guard@GOTPCREL(%rip), %rdx
	movq	(%rdx), %rdx
	movq	%rdx, -8(%rbp)
	movq	%rdi, -96(%rbp)
	movq	%rsi, -104(%rbp)
Ltmp0:
	.loc	1 42 37 prologue_end    ## ../handmade/code/osx_handmade_controllers.m:42:37
	movq	(%rcx), %rdi
	.loc	1 42 18 is_stmt 0       ## ../handmade/code/osx_handmade_controllers.m:42:18
	movl	%eax, %esi
	callq	_IOHIDManagerCreate
	.loc	1 42 16                 ## ../handmade/code/osx_handmade_controllers.m:42:16
	movq	%rax, _HIDManager(%rip)
	.loc	1 43 28 is_stmt 1       ## ../handmade/code/osx_handmade_controllers.m:43:28
	movq	L_OBJC_CLASSLIST_REFERENCES_$_(%rip), %rax
	movq	L_OBJC_SELECTOR_REFERENCES_(%rip), %rsi
	movq	%rax, %rdi
	callq	*_objc_msgSend@GOTPCREL(%rip)
	.loc	1 43 27 is_stmt 0       ## ../handmade/code/osx_handmade_controllers.m:43:27
	movq	L_OBJC_SELECTOR_REFERENCES_.2(%rip), %rsi
	movq	%rax, %rdi
	callq	*_objc_msgSend@GOTPCREL(%rip)
	.loc	1 43 25                 ## ../handmade/code/osx_handmade_controllers.m:43:25
	movq	%rax, _connectedController(%rip)
	.loc	1 44 27 is_stmt 1       ## ../handmade/code/osx_handmade_controllers.m:44:27
	movq	L_OBJC_CLASSLIST_REFERENCES_$_(%rip), %rax
	movq	L_OBJC_SELECTOR_REFERENCES_(%rip), %rsi
	movq	%rax, %rdi
	callq	*_objc_msgSend@GOTPCREL(%rip)
	.loc	1 44 26 is_stmt 0       ## ../handmade/code/osx_handmade_controllers.m:44:26
	movq	L_OBJC_SELECTOR_REFERENCES_.2(%rip), %rsi
	movq	%rax, %rdi
	callq	*_objc_msgSend@GOTPCREL(%rip)
	xorl	%esi, %esi
	.loc	1 44 24                 ## ../handmade/code/osx_handmade_controllers.m:44:24
	movq	%rax, _keyboardController(%rip)
Ltmp1:
	.loc	1 46 26 is_stmt 1       ## ../handmade/code/osx_handmade_controllers.m:46:26
	movq	_HIDManager(%rip), %rdi
	.loc	1 46 9 is_stmt 0        ## ../handmade/code/osx_handmade_controllers.m:46:9
	callq	_IOHIDManagerOpen
	.loc	1 46 61                 ## ../handmade/code/osx_handmade_controllers.m:46:61
	cmpl	$0, %eax
Ltmp2:
	.loc	1 46 9                  ## ../handmade/code/osx_handmade_controllers.m:46:9
	je	LBB0_2
## %bb.1:
	.loc	1 0 9                   ## ../handmade/code/osx_handmade_controllers.m:0:9
	leaq	L__unnamed_cfstring_(%rip), %rax
Ltmp3:
	.loc	1 47 9 is_stmt 1        ## ../handmade/code/osx_handmade_controllers.m:47:9
	movq	%rax, %rdi
	movb	$0, %al
	callq	_NSLog
	.loc	1 48 9                  ## ../handmade/code/osx_handmade_controllers.m:48:9
	jmp	LBB0_3
Ltmp4:
LBB0_2:
	.loc	1 0 9 is_stmt 0         ## ../handmade/code/osx_handmade_controllers.m:0:9
	xorl	%eax, %eax
	movl	%eax, %edx
	.loc	1 51 48 is_stmt 1       ## ../handmade/code/osx_handmade_controllers.m:51:48
	movq	_HIDManager(%rip), %rdi
	.loc	1 51 5 is_stmt 0        ## ../handmade/code/osx_handmade_controllers.m:51:5
	leaq	_controllerConnected(%rip), %rsi
	callq	_IOHIDManagerRegisterDeviceMatchingCallback
	.loc	1 52 43 is_stmt 1       ## ../handmade/code/osx_handmade_controllers.m:52:43
	movq	_HIDManager(%rip), %rdi
	.loc	1 53 11                 ## ../handmade/code/osx_handmade_controllers.m:53:11
	movq	L_OBJC_CLASSLIST_REFERENCES_$_.3(%rip), %rdx
	movq	L_OBJC_SELECTOR_REFERENCES_.6(%rip), %rsi
	movq	%rdi, -112(%rbp)        ## 8-byte Spill
	movq	%rdx, %rdi
	leaq	L_.str.4(%rip), %rdx
	callq	*_objc_msgSend@GOTPCREL(%rip)
	.loc	1 53 9 is_stmt 0        ## ../handmade/code/osx_handmade_controllers.m:53:9
	movq	%rax, -56(%rbp)
	.loc	1 53 40                 ## ../handmade/code/osx_handmade_controllers.m:53:40
	movq	L_OBJC_CLASSLIST_REFERENCES_$_.7(%rip), %rax
	movq	L_OBJC_SELECTOR_REFERENCES_.9(%rip), %rsi
	movq	%rax, %rdi
	movl	$1, %edx
	callq	*_objc_msgSend@GOTPCREL(%rip)
	.loc	1 53 9                  ## ../handmade/code/osx_handmade_controllers.m:53:9
	movq	%rax, -40(%rbp)
	.loc	1 53 68                 ## ../handmade/code/osx_handmade_controllers.m:53:68
	movq	L_OBJC_CLASSLIST_REFERENCES_$_.3(%rip), %rax
	movq	L_OBJC_SELECTOR_REFERENCES_.6(%rip), %rsi
	movq	%rax, %rdi
	leaq	L_.str.10(%rip), %rdx
	callq	*_objc_msgSend@GOTPCREL(%rip)
	.loc	1 53 9                  ## ../handmade/code/osx_handmade_controllers.m:53:9
	movq	%rax, -48(%rbp)
	.loc	1 53 93                 ## ../handmade/code/osx_handmade_controllers.m:53:93
	movq	L_OBJC_CLASSLIST_REFERENCES_$_.7(%rip), %rax
	movq	L_OBJC_SELECTOR_REFERENCES_.9(%rip), %rsi
	movq	%rax, %rdi
	movl	$5, %edx
	callq	*_objc_msgSend@GOTPCREL(%rip)
	movl	$2, %edx
	movl	%edx, %r8d
	.loc	1 53 9                  ## ../handmade/code/osx_handmade_controllers.m:53:9
	movq	%rax, -32(%rbp)
	movq	L_OBJC_CLASSLIST_REFERENCES_$_.11(%rip), %rax
	movq	L_OBJC_SELECTOR_REFERENCES_.13(%rip), %rsi
	leaq	-40(%rbp), %rdi
	leaq	-56(%rbp), %rcx
	movq	%rdi, -120(%rbp)        ## 8-byte Spill
	movq	%rax, %rdi
	movq	-120(%rbp), %rdx        ## 8-byte Reload
	callq	*_objc_msgSend@GOTPCREL(%rip)
	.loc	1 52 76 is_stmt 1       ## ../handmade/code/osx_handmade_controllers.m:52:76
	movq	%rax, -24(%rbp)
	.loc	1 54 11                 ## ../handmade/code/osx_handmade_controllers.m:54:11
	movq	L_OBJC_CLASSLIST_REFERENCES_$_.3(%rip), %rax
	movq	L_OBJC_SELECTOR_REFERENCES_.6(%rip), %rsi
	movq	%rax, %rdi
	leaq	L_.str.4(%rip), %rdx
	callq	*_objc_msgSend@GOTPCREL(%rip)
	.loc	1 54 9 is_stmt 0        ## ../handmade/code/osx_handmade_controllers.m:54:9
	movq	%rax, -88(%rbp)
	.loc	1 54 40                 ## ../handmade/code/osx_handmade_controllers.m:54:40
	movq	L_OBJC_CLASSLIST_REFERENCES_$_.7(%rip), %rax
	movq	L_OBJC_SELECTOR_REFERENCES_.9(%rip), %rsi
	movq	%rax, %rdi
	movl	$1, %edx
	callq	*_objc_msgSend@GOTPCREL(%rip)
	.loc	1 54 9                  ## ../handmade/code/osx_handmade_controllers.m:54:9
	movq	%rax, -72(%rbp)
	.loc	1 54 68                 ## ../handmade/code/osx_handmade_controllers.m:54:68
	movq	L_OBJC_CLASSLIST_REFERENCES_$_.3(%rip), %rax
	movq	L_OBJC_SELECTOR_REFERENCES_.6(%rip), %rsi
	movq	%rax, %rdi
	leaq	L_.str.10(%rip), %rdx
	callq	*_objc_msgSend@GOTPCREL(%rip)
	.loc	1 54 9                  ## ../handmade/code/osx_handmade_controllers.m:54:9
	movq	%rax, -80(%rbp)
	.loc	1 54 93                 ## ../handmade/code/osx_handmade_controllers.m:54:93
	movq	L_OBJC_CLASSLIST_REFERENCES_$_.7(%rip), %rax
	movq	L_OBJC_SELECTOR_REFERENCES_.9(%rip), %rsi
	movq	%rax, %rdi
	movl	$8, %edx
	callq	*_objc_msgSend@GOTPCREL(%rip)
	movl	$2, %edx
	movl	%edx, %r8d
	.loc	1 54 9                  ## ../handmade/code/osx_handmade_controllers.m:54:9
	movq	%rax, -64(%rbp)
	movq	L_OBJC_CLASSLIST_REFERENCES_$_.11(%rip), %rax
	movq	L_OBJC_SELECTOR_REFERENCES_.13(%rip), %rsi
	leaq	-72(%rbp), %rcx
	leaq	-88(%rbp), %rdi
	movq	%rdi, -128(%rbp)        ## 8-byte Spill
	movq	%rax, %rdi
	movq	%rcx, %rdx
	movq	-128(%rbp), %rcx        ## 8-byte Reload
	callq	*_objc_msgSend@GOTPCREL(%rip)
	movl	$2, %r9d
	movl	%r9d, %ecx
	.loc	1 52 76 is_stmt 1       ## ../handmade/code/osx_handmade_controllers.m:52:76
	movq	%rax, -16(%rbp)
	movq	L_OBJC_CLASSLIST_REFERENCES_$_.14(%rip), %rax
	movq	L_OBJC_SELECTOR_REFERENCES_.16(%rip), %rsi
	leaq	-24(%rbp), %rdx
	movq	%rax, %rdi
	callq	*_objc_msgSend@GOTPCREL(%rip)
	.loc	1 52 5 is_stmt 0        ## ../handmade/code/osx_handmade_controllers.m:52:5
	movq	-112(%rbp), %rdi        ## 8-byte Reload
	movq	%rax, %rsi
	callq	_IOHIDManagerSetDeviceMatchingMultiple
	.loc	1 57 34 is_stmt 1       ## ../handmade/code/osx_handmade_controllers.m:57:34
	movq	_HIDManager(%rip), %rdi
	.loc	1 58 37                 ## ../handmade/code/osx_handmade_controllers.m:58:37
	movq	%rdi, -136(%rbp)        ## 8-byte Spill
	callq	_CFRunLoopGetMain
	movq	_kCFRunLoopDefaultMode@GOTPCREL(%rip), %rcx
	.loc	1 59 37                 ## ../handmade/code/osx_handmade_controllers.m:59:37
	movq	(%rcx), %rdx
	.loc	1 57 2                  ## ../handmade/code/osx_handmade_controllers.m:57:2
	movq	-136(%rbp), %rdi        ## 8-byte Reload
	movq	%rax, %rsi
	callq	_IOHIDManagerScheduleWithRunLoop
	leaq	L__unnamed_cfstring_.18(%rip), %rax
	.loc	1 60 2                  ## ../handmade/code/osx_handmade_controllers.m:60:2
	movq	%rax, %rdi
	movb	$0, %al
	callq	_NSLog
LBB0_3:
	.loc	1 0 2 is_stmt 0         ## ../handmade/code/osx_handmade_controllers.m:0:2
	movq	___stack_chk_guard@GOTPCREL(%rip), %rax
	movq	(%rax), %rax
	movq	-8(%rbp), %rcx
	cmpq	%rcx, %rax
	jne	LBB0_5
## %bb.4:
	.loc	1 61 1 is_stmt 1        ## ../handmade/code/osx_handmade_controllers.m:61:1
	addq	$144, %rsp
	popq	%rbp
	retq
LBB0_5:
	.loc	1 0 0 is_stmt 0         ## ../handmade/code/osx_handmade_controllers.m:0:0
	callq	___stack_chk_fail
	ud2
Ltmp5:
Lfunc_end0:
	.cfi_endproc
                                        ## -- End function
	.p2align	4, 0x90         ## -- Begin function controllerConnected
_controllerConnected:                   ## @controllerConnected
Lfunc_begin1:
	.loc	1 201 0 is_stmt 1       ## ../handmade/code/osx_handmade_controllers.m:201:0
	.cfi_startproc
## %bb.0:
	pushq	%rbp
	.cfi_def_cfa_offset 16
	.cfi_offset %rbp, -16
	movq	%rsp, %rbp
	.cfi_def_cfa_register %rbp
	subq	$144, %rsp
	movq	___stack_chk_guard@GOTPCREL(%rip), %rax
	movq	(%rax), %rax
	movq	%rax, -8(%rbp)
	movq	%rdi, -64(%rbp)
	movl	%esi, -68(%rbp)
	movq	%rdx, -80(%rbp)
	movq	%rcx, -88(%rbp)
Ltmp6:
	.loc	1 203 15 prologue_end   ## ../handmade/code/osx_handmade_controllers.m:203:15
	cmpl	$0, -68(%rbp)
Ltmp7:
	.loc	1 203 8 is_stmt 0       ## ../handmade/code/osx_handmade_controllers.m:203:8
	je	LBB1_2
## %bb.1:
Ltmp8:
	.loc	1 204 9 is_stmt 1       ## ../handmade/code/osx_handmade_controllers.m:204:9
	jmp	LBB1_6
Ltmp9:
LBB1_2:
	.loc	1 0 9 is_stmt 0         ## ../handmade/code/osx_handmade_controllers.m:0:9
	leaq	L__unnamed_cfstring_.95(%rip), %rax
	.loc	1 207 72 is_stmt 1      ## ../handmade/code/osx_handmade_controllers.m:207:72
	movq	-88(%rbp), %rdi
	.loc	1 207 49 is_stmt 0      ## ../handmade/code/osx_handmade_controllers.m:207:49
	movq	%rax, %rsi
	callq	_IOHIDDeviceGetProperty
	.loc	1 207 27                ## ../handmade/code/osx_handmade_controllers.m:207:27
	movq	L_OBJC_SELECTOR_REFERENCES_.97(%rip), %rsi
	movq	%rax, %rdi
	callq	*_objc_msgSend@GOTPCREL(%rip)
	leaq	L__unnamed_cfstring_.99(%rip), %rsi
	.loc	1 207 16                ## ../handmade/code/osx_handmade_controllers.m:207:16
	movq	%rax, -96(%rbp)
	.loc	1 209 73 is_stmt 1      ## ../handmade/code/osx_handmade_controllers.m:209:73
	movq	-88(%rbp), %rdi
	.loc	1 209 50 is_stmt 0      ## ../handmade/code/osx_handmade_controllers.m:209:50
	callq	_IOHIDDeviceGetProperty
	.loc	1 209 28                ## ../handmade/code/osx_handmade_controllers.m:209:28
	movq	L_OBJC_SELECTOR_REFERENCES_.97(%rip), %rsi
	movq	%rax, %rdi
	callq	*_objc_msgSend@GOTPCREL(%rip)
	.loc	1 209 16                ## ../handmade/code/osx_handmade_controllers.m:209:16
	movq	%rax, -104(%rbp)
	.loc	1 212 42 is_stmt 1      ## ../handmade/code/osx_handmade_controllers.m:212:42
	movq	L_OBJC_CLASSLIST_REFERENCES_$_(%rip), %rax
	movq	L_OBJC_SELECTOR_REFERENCES_(%rip), %rsi
	movq	%rax, %rdi
	callq	*_objc_msgSend@GOTPCREL(%rip)
	.loc	1 212 41 is_stmt 0      ## ../handmade/code/osx_handmade_controllers.m:212:41
	movq	L_OBJC_SELECTOR_REFERENCES_.2(%rip), %rsi
	movq	%rax, %rdi
	callq	*_objc_msgSend@GOTPCREL(%rip)
	.loc	1 212 28                ## ../handmade/code/osx_handmade_controllers.m:212:28
	movq	%rax, -112(%rbp)
Ltmp10:
	.loc	1 214 17 is_stmt 1      ## ../handmade/code/osx_handmade_controllers.m:214:17
	cmpq	$1356, -96(%rbp)        ## imm = 0x54C
	.loc	1 214 27 is_stmt 0      ## ../handmade/code/osx_handmade_controllers.m:214:27
	jne	LBB1_5
## %bb.3:
	.loc	1 214 40                ## ../handmade/code/osx_handmade_controllers.m:214:40
	cmpq	$1476, -104(%rbp)       ## imm = 0x5C4
Ltmp11:
	.loc	1 214 8                 ## ../handmade/code/osx_handmade_controllers.m:214:8
	jne	LBB1_5
## %bb.4:
	.loc	1 0 8                   ## ../handmade/code/osx_handmade_controllers.m:0:8
	leaq	L__unnamed_cfstring_.101(%rip), %rax
Ltmp12:
	.loc	1 215 9 is_stmt 1       ## ../handmade/code/osx_handmade_controllers.m:215:9
	movq	%rax, %rdi
	movb	$0, %al
	callq	_NSLog
	.loc	1 216 9                 ## ../handmade/code/osx_handmade_controllers.m:216:9
	movq	-112(%rbp), %rdi
	movq	_OBJC_IVAR_$_OSXHandmadeController._buttonAUsageID(%rip), %rcx
	.loc	1 216 37 is_stmt 0      ## ../handmade/code/osx_handmade_controllers.m:216:37
	movq	$2, (%rdi,%rcx)
	.loc	1 217 9 is_stmt 1       ## ../handmade/code/osx_handmade_controllers.m:217:9
	movq	-112(%rbp), %rcx
	movq	_OBJC_IVAR_$_OSXHandmadeController._buttonBUsageID(%rip), %rdi
	.loc	1 217 37 is_stmt 0      ## ../handmade/code/osx_handmade_controllers.m:217:37
	movq	$3, (%rcx,%rdi)
	.loc	1 218 9 is_stmt 1       ## ../handmade/code/osx_handmade_controllers.m:218:9
	movq	-112(%rbp), %rcx
	movq	_OBJC_IVAR_$_OSXHandmadeController._buttonXUsageID(%rip), %rdi
	.loc	1 218 37 is_stmt 0      ## ../handmade/code/osx_handmade_controllers.m:218:37
	movq	$1, (%rcx,%rdi)
	.loc	1 219 9 is_stmt 1       ## ../handmade/code/osx_handmade_controllers.m:219:9
	movq	-112(%rbp), %rcx
	movq	_OBJC_IVAR_$_OSXHandmadeController._buttonYUsageID(%rip), %rdi
	.loc	1 219 37 is_stmt 0      ## ../handmade/code/osx_handmade_controllers.m:219:37
	movq	$4, (%rcx,%rdi)
	.loc	1 220 9 is_stmt 1       ## ../handmade/code/osx_handmade_controllers.m:220:9
	movq	-112(%rbp), %rcx
	movq	_OBJC_IVAR_$_OSXHandmadeController._lShoulderUsageID(%rip), %rdi
	.loc	1 220 39 is_stmt 0      ## ../handmade/code/osx_handmade_controllers.m:220:39
	movq	$5, (%rcx,%rdi)
	.loc	1 221 9 is_stmt 1       ## ../handmade/code/osx_handmade_controllers.m:221:9
	movq	-112(%rbp), %rcx
	movq	_OBJC_IVAR_$_OSXHandmadeController._rShoulderUsageID(%rip), %rdi
	.loc	1 221 39 is_stmt 0      ## ../handmade/code/osx_handmade_controllers.m:221:39
	movq	$6, (%rcx,%rdi)
Ltmp13:
LBB1_5:
	.loc	1 224 43 is_stmt 1      ## ../handmade/code/osx_handmade_controllers.m:224:43
	movq	-88(%rbp), %rdi
	.loc	1 224 85 is_stmt 0      ## ../handmade/code/osx_handmade_controllers.m:224:85
	movq	-112(%rbp), %rax
	.loc	1 224 5                 ## ../handmade/code/osx_handmade_controllers.m:224:5
	leaq	_controllerInput(%rip), %rsi
	movq	%rax, %rdx
	callq	_IOHIDDeviceRegisterInputValueCallback
	.loc	1 225 46 is_stmt 1      ## ../handmade/code/osx_handmade_controllers.m:225:46
	movq	-88(%rbp), %rdi
	.loc	1 226 11                ## ../handmade/code/osx_handmade_controllers.m:226:11
	movq	L_OBJC_CLASSLIST_REFERENCES_$_.3(%rip), %rax
	movq	L_OBJC_SELECTOR_REFERENCES_.6(%rip), %rsi
	movq	%rdi, -120(%rbp)        ## 8-byte Spill
	movq	%rax, %rdi
	leaq	L_.str.102(%rip), %rdx
	callq	*_objc_msgSend@GOTPCREL(%rip)
	.loc	1 226 9 is_stmt 0       ## ../handmade/code/osx_handmade_controllers.m:226:9
	movq	%rax, -40(%rbp)
	.loc	1 226 41                ## ../handmade/code/osx_handmade_controllers.m:226:41
	movq	L_OBJC_CLASSLIST_REFERENCES_$_.7(%rip), %rax
	movq	L_OBJC_SELECTOR_REFERENCES_.9(%rip), %rsi
	movq	%rax, %rdi
	movl	$1, %edx
	callq	*_objc_msgSend@GOTPCREL(%rip)
	movl	$1, %edx
	movl	%edx, %r8d
	.loc	1 226 9                 ## ../handmade/code/osx_handmade_controllers.m:226:9
	movq	%rax, -32(%rbp)
	movq	L_OBJC_CLASSLIST_REFERENCES_$_.11(%rip), %rax
	movq	L_OBJC_SELECTOR_REFERENCES_.13(%rip), %rsi
	leaq	-32(%rbp), %rdi
	leaq	-40(%rbp), %rcx
	movq	%rdi, -128(%rbp)        ## 8-byte Spill
	movq	%rax, %rdi
	movq	-128(%rbp), %rdx        ## 8-byte Reload
	callq	*_objc_msgSend@GOTPCREL(%rip)
	.loc	1 225 75 is_stmt 1      ## ../handmade/code/osx_handmade_controllers.m:225:75
	movq	%rax, -24(%rbp)
	.loc	1 227 11                ## ../handmade/code/osx_handmade_controllers.m:227:11
	movq	L_OBJC_CLASSLIST_REFERENCES_$_.3(%rip), %rax
	movq	L_OBJC_SELECTOR_REFERENCES_.6(%rip), %rsi
	movq	%rax, %rdi
	leaq	L_.str.102(%rip), %rdx
	callq	*_objc_msgSend@GOTPCREL(%rip)
	.loc	1 227 9 is_stmt 0       ## ../handmade/code/osx_handmade_controllers.m:227:9
	movq	%rax, -56(%rbp)
	.loc	1 227 41                ## ../handmade/code/osx_handmade_controllers.m:227:41
	movq	L_OBJC_CLASSLIST_REFERENCES_$_.7(%rip), %rax
	movq	L_OBJC_SELECTOR_REFERENCES_.9(%rip), %rsi
	movq	%rax, %rdi
	movl	$9, %edx
	callq	*_objc_msgSend@GOTPCREL(%rip)
	movl	$1, %edx
	movl	%edx, %r8d
	.loc	1 227 9                 ## ../handmade/code/osx_handmade_controllers.m:227:9
	movq	%rax, -48(%rbp)
	movq	L_OBJC_CLASSLIST_REFERENCES_$_.11(%rip), %rax
	movq	L_OBJC_SELECTOR_REFERENCES_.13(%rip), %rsi
	leaq	-48(%rbp), %rcx
	leaq	-56(%rbp), %rdi
	movq	%rdi, -136(%rbp)        ## 8-byte Spill
	movq	%rax, %rdi
	movq	%rcx, %rdx
	movq	-136(%rbp), %rcx        ## 8-byte Reload
	callq	*_objc_msgSend@GOTPCREL(%rip)
	movl	$2, %r9d
	movl	%r9d, %ecx
	.loc	1 225 75 is_stmt 1      ## ../handmade/code/osx_handmade_controllers.m:225:75
	movq	%rax, -16(%rbp)
	movq	L_OBJC_CLASSLIST_REFERENCES_$_.14(%rip), %rax
	movq	L_OBJC_SELECTOR_REFERENCES_.16(%rip), %rsi
	leaq	-24(%rbp), %rdx
	movq	%rax, %rdi
	callq	*_objc_msgSend@GOTPCREL(%rip)
	.loc	1 225 5 is_stmt 0       ## ../handmade/code/osx_handmade_controllers.m:225:5
	movq	-120(%rbp), %rdi        ## 8-byte Reload
	movq	%rax, %rsi
	callq	_IOHIDDeviceSetInputValueMatchingMultiple
	.loc	1 230 27 is_stmt 1      ## ../handmade/code/osx_handmade_controllers.m:230:27
	movq	-112(%rbp), %rax
	.loc	1 230 25 is_stmt 0      ## ../handmade/code/osx_handmade_controllers.m:230:25
	movq	%rax, _connectedController(%rip)
LBB1_6:
	.loc	1 0 25                  ## ../handmade/code/osx_handmade_controllers.m:0:25
	movq	___stack_chk_guard@GOTPCREL(%rip), %rax
	movq	(%rax), %rax
	movq	-8(%rbp), %rcx
	cmpq	%rcx, %rax
	jne	LBB1_8
## %bb.7:
	.loc	1 231 1 is_stmt 1       ## ../handmade/code/osx_handmade_controllers.m:231:1
	addq	$144, %rsp
	popq	%rbp
	retq
LBB1_8:
	.loc	1 0 0 is_stmt 0         ## ../handmade/code/osx_handmade_controllers.m:0:0
	callq	___stack_chk_fail
	ud2
Ltmp14:
Lfunc_end1:
	.cfi_endproc
                                        ## -- End function
	.p2align	4, 0x90         ## -- Begin function +[OSXHandmadeController setControllerInputSource:]
"+[OSXHandmadeController setControllerInputSource:]": ## @"\01+[OSXHandmadeController setControllerInputSource:]"
Lfunc_begin2:
	.loc	1 63 0 is_stmt 1        ## ../handmade/code/osx_handmade_controllers.m:63:0
	.cfi_startproc
## %bb.0:
	pushq	%rbp
	.cfi_def_cfa_offset 16
	.cfi_offset %rbp, -16
	movq	%rsp, %rbp
	.cfi_def_cfa_register %rbp
	movq	%rdi, -8(%rbp)
	movq	%rsi, -16(%rbp)
	movq	%rdx, -24(%rbp)
Ltmp15:
	.loc	1 64 28 prologue_end    ## ../handmade/code/osx_handmade_controllers.m:64:28
	movq	-24(%rbp), %rdx
	.loc	1 64 26 is_stmt 0       ## ../handmade/code/osx_handmade_controllers.m:64:26
	movq	%rdx, _controllerInputSource(%rip)
	.loc	1 65 1 is_stmt 1        ## ../handmade/code/osx_handmade_controllers.m:65:1
	popq	%rbp
	retq
Ltmp16:
Lfunc_end2:
	.cfi_endproc
                                        ## -- End function
	.p2align	4, 0x90         ## -- Begin function +[OSXHandmadeController selectedController]
"+[OSXHandmadeController selectedController]": ## @"\01+[OSXHandmadeController selectedController]"
Lfunc_begin3:
	.loc	1 67 0                  ## ../handmade/code/osx_handmade_controllers.m:67:0
	.cfi_startproc
## %bb.0:
	pushq	%rbp
	.cfi_def_cfa_offset 16
	.cfi_offset %rbp, -16
	movq	%rsp, %rbp
	.cfi_def_cfa_register %rbp
	movq	%rdi, -8(%rbp)
	movq	%rsi, -16(%rbp)
Ltmp17:
	.loc	1 71 13 prologue_end    ## ../handmade/code/osx_handmade_controllers.m:71:13
	movq	_controllerInputSource(%rip), %rsi
	.loc	1 71 5 is_stmt 0        ## ../handmade/code/osx_handmade_controllers.m:71:5
	testq	%rsi, %rsi
	movq	%rsi, -32(%rbp)         ## 8-byte Spill
	je	LBB3_1
	jmp	LBB3_4
LBB3_4:
	movq	-32(%rbp), %rax         ## 8-byte Reload
	subq	$1, %rax
	movq	%rax, -40(%rbp)         ## 8-byte Spill
	je	LBB3_2
	jmp	LBB3_3
LBB3_1:
Ltmp18:
	.loc	1 73 26 is_stmt 1       ## ../handmade/code/osx_handmade_controllers.m:73:26
	movq	_connectedController(%rip), %rax
	.loc	1 73 24 is_stmt 0       ## ../handmade/code/osx_handmade_controllers.m:73:24
	movq	%rax, -24(%rbp)
LBB3_2:
	.loc	1 75 26 is_stmt 1       ## ../handmade/code/osx_handmade_controllers.m:75:26
	movq	_keyboardController(%rip), %rax
	.loc	1 75 24 is_stmt 0       ## ../handmade/code/osx_handmade_controllers.m:75:24
	movq	%rax, -24(%rbp)
Ltmp19:
LBB3_3:
	.loc	1 78 12 is_stmt 1       ## ../handmade/code/osx_handmade_controllers.m:78:12
	movq	-24(%rbp), %rax
	.loc	1 78 5 is_stmt 0        ## ../handmade/code/osx_handmade_controllers.m:78:5
	popq	%rbp
	retq
Ltmp20:
Lfunc_end3:
	.cfi_endproc
                                        ## -- End function
	.p2align	4, 0x90         ## -- Begin function +[OSXHandmadeController updateKeyboardControllerWith:]
"+[OSXHandmadeController updateKeyboardControllerWith:]": ## @"\01+[OSXHandmadeController updateKeyboardControllerWith:]"
Lfunc_begin4:
	.loc	1 81 0 is_stmt 1        ## ../handmade/code/osx_handmade_controllers.m:81:0
	.cfi_startproc
## %bb.0:
	pushq	%rbp
	.cfi_def_cfa_offset 16
	.cfi_offset %rbp, -16
	movq	%rsp, %rbp
	.cfi_def_cfa_register %rbp
	subq	$48, %rsp
	movq	%rdi, -8(%rbp)
	movq	%rsi, -16(%rbp)
	movq	%rdx, -24(%rbp)
Ltmp21:
	.loc	1 82 14 prologue_end    ## ../handmade/code/osx_handmade_controllers.m:82:14
	movq	-24(%rbp), %rdi
	.loc	1 82 13 is_stmt 0       ## ../handmade/code/osx_handmade_controllers.m:82:13
	movq	L_OBJC_SELECTOR_REFERENCES_.20(%rip), %rsi
	movq	_objc_msgSend@GOTPCREL(%rip), %rdx
	callq	*%rdx
	.loc	1 82 5                  ## ../handmade/code/osx_handmade_controllers.m:82:5
	movq	%rax, %rdx
	subq	$10, %rax
	movq	%rdx, -32(%rbp)         ## 8-byte Spill
	movq	%rax, -40(%rbp)         ## 8-byte Spill
	je	LBB4_1
	jmp	LBB4_53
LBB4_53:
	movq	-32(%rbp), %rax         ## 8-byte Reload
	subq	$11, %rax
	movq	%rax, -48(%rbp)         ## 8-byte Spill
	je	LBB4_26
	jmp	LBB4_51
LBB4_1:
Ltmp22:
	.loc	1 84 17 is_stmt 1       ## ../handmade/code/osx_handmade_controllers.m:84:17
	movq	-24(%rbp), %rax
	.loc	1 84 23 is_stmt 0       ## ../handmade/code/osx_handmade_controllers.m:84:23
	movq	L_OBJC_SELECTOR_REFERENCES_.22(%rip), %rsi
	movq	%rax, %rdi
	callq	*_objc_msgSend@GOTPCREL(%rip)
	.loc	1 84 17                 ## ../handmade/code/osx_handmade_controllers.m:84:17
	movzwl	%ax, %ecx
	.loc	1 84 31                 ## ../handmade/code/osx_handmade_controllers.m:84:31
	cmpl	$123, %ecx
	.loc	1 84 51                 ## ../handmade/code/osx_handmade_controllers.m:84:51
	jne	LBB4_4
## %bb.2:
	.loc	1 85 17 is_stmt 1       ## ../handmade/code/osx_handmade_controllers.m:85:17
	movq	_keyboardController(%rip), %rax
	.loc	1 85 36 is_stmt 0       ## ../handmade/code/osx_handmade_controllers.m:85:36
	movq	L_OBJC_SELECTOR_REFERENCES_.24(%rip), %rsi
	movq	%rax, %rdi
	callq	*_objc_msgSend@GOTPCREL(%rip)
	.loc	1 85 42                 ## ../handmade/code/osx_handmade_controllers.m:85:42
	cmpq	$1, %rax
Ltmp23:
	.loc	1 84 17 is_stmt 1       ## ../handmade/code/osx_handmade_controllers.m:84:17
	je	LBB4_4
## %bb.3:
Ltmp24:
	.loc	1 86 17                 ## ../handmade/code/osx_handmade_controllers.m:86:17
	movq	_keyboardController(%rip), %rax
	.loc	1 86 36 is_stmt 0       ## ../handmade/code/osx_handmade_controllers.m:86:36
	movq	L_OBJC_SELECTOR_REFERENCES_.26(%rip), %rsi
	movq	%rax, %rdi
	movq	$-1, %rdx
	callq	*_objc_msgSend@GOTPCREL(%rip)
	.loc	1 87 17 is_stmt 1       ## ../handmade/code/osx_handmade_controllers.m:87:17
	jmp	LBB4_52
Ltmp25:
LBB4_4:
	.loc	1 90 17                 ## ../handmade/code/osx_handmade_controllers.m:90:17
	movq	-24(%rbp), %rax
	.loc	1 90 23 is_stmt 0       ## ../handmade/code/osx_handmade_controllers.m:90:23
	movq	L_OBJC_SELECTOR_REFERENCES_.22(%rip), %rsi
	movq	%rax, %rdi
	callq	*_objc_msgSend@GOTPCREL(%rip)
	.loc	1 90 17                 ## ../handmade/code/osx_handmade_controllers.m:90:17
	movzwl	%ax, %ecx
	.loc	1 90 31                 ## ../handmade/code/osx_handmade_controllers.m:90:31
	cmpl	$124, %ecx
	.loc	1 90 52                 ## ../handmade/code/osx_handmade_controllers.m:90:52
	jne	LBB4_7
## %bb.5:
	.loc	1 91 17 is_stmt 1       ## ../handmade/code/osx_handmade_controllers.m:91:17
	movq	_keyboardController(%rip), %rax
	.loc	1 91 36 is_stmt 0       ## ../handmade/code/osx_handmade_controllers.m:91:36
	movq	L_OBJC_SELECTOR_REFERENCES_.24(%rip), %rsi
	movq	%rax, %rdi
	callq	*_objc_msgSend@GOTPCREL(%rip)
	.loc	1 91 42                 ## ../handmade/code/osx_handmade_controllers.m:91:42
	cmpq	$-1, %rax
Ltmp26:
	.loc	1 90 17 is_stmt 1       ## ../handmade/code/osx_handmade_controllers.m:90:17
	je	LBB4_7
## %bb.6:
	.loc	1 0 17 is_stmt 0        ## ../handmade/code/osx_handmade_controllers.m:0:17
	movl	$1, %eax
	movl	%eax, %edx
Ltmp27:
	.loc	1 92 17 is_stmt 1       ## ../handmade/code/osx_handmade_controllers.m:92:17
	movq	_keyboardController(%rip), %rcx
	.loc	1 92 36 is_stmt 0       ## ../handmade/code/osx_handmade_controllers.m:92:36
	movq	L_OBJC_SELECTOR_REFERENCES_.26(%rip), %rsi
	movq	%rcx, %rdi
	callq	*_objc_msgSend@GOTPCREL(%rip)
	.loc	1 93 17 is_stmt 1       ## ../handmade/code/osx_handmade_controllers.m:93:17
	jmp	LBB4_52
Ltmp28:
LBB4_7:
	.loc	1 96 17                 ## ../handmade/code/osx_handmade_controllers.m:96:17
	movq	-24(%rbp), %rax
	.loc	1 96 23 is_stmt 0       ## ../handmade/code/osx_handmade_controllers.m:96:23
	movq	L_OBJC_SELECTOR_REFERENCES_.22(%rip), %rsi
	movq	%rax, %rdi
	callq	*_objc_msgSend@GOTPCREL(%rip)
	.loc	1 96 17                 ## ../handmade/code/osx_handmade_controllers.m:96:17
	movzwl	%ax, %ecx
	.loc	1 96 31                 ## ../handmade/code/osx_handmade_controllers.m:96:31
	cmpl	$125, %ecx
	.loc	1 96 51                 ## ../handmade/code/osx_handmade_controllers.m:96:51
	jne	LBB4_10
## %bb.8:
	.loc	1 97 17 is_stmt 1       ## ../handmade/code/osx_handmade_controllers.m:97:17
	movq	_keyboardController(%rip), %rax
	.loc	1 97 36 is_stmt 0       ## ../handmade/code/osx_handmade_controllers.m:97:36
	movq	L_OBJC_SELECTOR_REFERENCES_.28(%rip), %rsi
	movq	%rax, %rdi
	callq	*_objc_msgSend@GOTPCREL(%rip)
	.loc	1 97 42                 ## ../handmade/code/osx_handmade_controllers.m:97:42
	cmpq	$-1, %rax
Ltmp29:
	.loc	1 96 17 is_stmt 1       ## ../handmade/code/osx_handmade_controllers.m:96:17
	je	LBB4_10
## %bb.9:
	.loc	1 0 17 is_stmt 0        ## ../handmade/code/osx_handmade_controllers.m:0:17
	movl	$1, %eax
	movl	%eax, %edx
Ltmp30:
	.loc	1 98 17 is_stmt 1       ## ../handmade/code/osx_handmade_controllers.m:98:17
	movq	_keyboardController(%rip), %rcx
	.loc	1 98 36 is_stmt 0       ## ../handmade/code/osx_handmade_controllers.m:98:36
	movq	L_OBJC_SELECTOR_REFERENCES_.30(%rip), %rsi
	movq	%rcx, %rdi
	callq	*_objc_msgSend@GOTPCREL(%rip)
	.loc	1 99 17 is_stmt 1       ## ../handmade/code/osx_handmade_controllers.m:99:17
	jmp	LBB4_52
Ltmp31:
LBB4_10:
	.loc	1 102 17                ## ../handmade/code/osx_handmade_controllers.m:102:17
	movq	-24(%rbp), %rax
	.loc	1 102 23 is_stmt 0      ## ../handmade/code/osx_handmade_controllers.m:102:23
	movq	L_OBJC_SELECTOR_REFERENCES_.22(%rip), %rsi
	movq	%rax, %rdi
	callq	*_objc_msgSend@GOTPCREL(%rip)
	.loc	1 102 17                ## ../handmade/code/osx_handmade_controllers.m:102:17
	movzwl	%ax, %ecx
	.loc	1 102 31                ## ../handmade/code/osx_handmade_controllers.m:102:31
	cmpl	$126, %ecx
	.loc	1 102 49                ## ../handmade/code/osx_handmade_controllers.m:102:49
	jne	LBB4_13
## %bb.11:
	.loc	1 103 17 is_stmt 1      ## ../handmade/code/osx_handmade_controllers.m:103:17
	movq	_keyboardController(%rip), %rax
	.loc	1 103 36 is_stmt 0      ## ../handmade/code/osx_handmade_controllers.m:103:36
	movq	L_OBJC_SELECTOR_REFERENCES_.28(%rip), %rsi
	movq	%rax, %rdi
	callq	*_objc_msgSend@GOTPCREL(%rip)
	.loc	1 103 42                ## ../handmade/code/osx_handmade_controllers.m:103:42
	cmpq	$1, %rax
Ltmp32:
	.loc	1 102 17 is_stmt 1      ## ../handmade/code/osx_handmade_controllers.m:102:17
	je	LBB4_13
## %bb.12:
Ltmp33:
	.loc	1 104 17                ## ../handmade/code/osx_handmade_controllers.m:104:17
	movq	_keyboardController(%rip), %rax
	.loc	1 104 36 is_stmt 0      ## ../handmade/code/osx_handmade_controllers.m:104:36
	movq	L_OBJC_SELECTOR_REFERENCES_.30(%rip), %rsi
	movq	%rax, %rdi
	movq	$-1, %rdx
	callq	*_objc_msgSend@GOTPCREL(%rip)
	.loc	1 105 17 is_stmt 1      ## ../handmade/code/osx_handmade_controllers.m:105:17
	jmp	LBB4_52
Ltmp34:
LBB4_13:
	.loc	1 108 17                ## ../handmade/code/osx_handmade_controllers.m:108:17
	movq	-24(%rbp), %rax
	.loc	1 108 23 is_stmt 0      ## ../handmade/code/osx_handmade_controllers.m:108:23
	movq	L_OBJC_SELECTOR_REFERENCES_.22(%rip), %rsi
	movq	%rax, %rdi
	callq	*_objc_msgSend@GOTPCREL(%rip)
	.loc	1 108 17                ## ../handmade/code/osx_handmade_controllers.m:108:17
	movzwl	%ax, %ecx
	.loc	1 108 31                ## ../handmade/code/osx_handmade_controllers.m:108:31
	cmpl	$0, %ecx
Ltmp35:
	.loc	1 108 17                ## ../handmade/code/osx_handmade_controllers.m:108:17
	jne	LBB4_15
## %bb.14:
Ltmp36:
	.loc	1 109 17 is_stmt 1      ## ../handmade/code/osx_handmade_controllers.m:109:17
	movq	_keyboardController(%rip), %rax
	.loc	1 109 36 is_stmt 0      ## ../handmade/code/osx_handmade_controllers.m:109:36
	movq	L_OBJC_SELECTOR_REFERENCES_.32(%rip), %rsi
	movq	%rax, %rdi
	movl	$1, %edx
	callq	*_objc_msgSend@GOTPCREL(%rip)
	.loc	1 110 17 is_stmt 1      ## ../handmade/code/osx_handmade_controllers.m:110:17
	jmp	LBB4_52
Ltmp37:
LBB4_15:
	.loc	1 113 17                ## ../handmade/code/osx_handmade_controllers.m:113:17
	movq	-24(%rbp), %rax
	.loc	1 113 23 is_stmt 0      ## ../handmade/code/osx_handmade_controllers.m:113:23
	movq	L_OBJC_SELECTOR_REFERENCES_.22(%rip), %rsi
	movq	%rax, %rdi
	callq	*_objc_msgSend@GOTPCREL(%rip)
	.loc	1 113 17                ## ../handmade/code/osx_handmade_controllers.m:113:17
	movzwl	%ax, %ecx
	.loc	1 113 31                ## ../handmade/code/osx_handmade_controllers.m:113:31
	cmpl	$1, %ecx
Ltmp38:
	.loc	1 113 17                ## ../handmade/code/osx_handmade_controllers.m:113:17
	jne	LBB4_17
## %bb.16:
Ltmp39:
	.loc	1 114 17 is_stmt 1      ## ../handmade/code/osx_handmade_controllers.m:114:17
	movq	_keyboardController(%rip), %rax
	.loc	1 114 36 is_stmt 0      ## ../handmade/code/osx_handmade_controllers.m:114:36
	movq	L_OBJC_SELECTOR_REFERENCES_.34(%rip), %rsi
	movq	%rax, %rdi
	movl	$1, %edx
	callq	*_objc_msgSend@GOTPCREL(%rip)
	.loc	1 115 17 is_stmt 1      ## ../handmade/code/osx_handmade_controllers.m:115:17
	jmp	LBB4_52
Ltmp40:
LBB4_17:
	.loc	1 118 17                ## ../handmade/code/osx_handmade_controllers.m:118:17
	movq	-24(%rbp), %rax
	.loc	1 118 23 is_stmt 0      ## ../handmade/code/osx_handmade_controllers.m:118:23
	movq	L_OBJC_SELECTOR_REFERENCES_.22(%rip), %rsi
	movq	%rax, %rdi
	callq	*_objc_msgSend@GOTPCREL(%rip)
	.loc	1 118 17                ## ../handmade/code/osx_handmade_controllers.m:118:17
	movzwl	%ax, %ecx
	.loc	1 118 31                ## ../handmade/code/osx_handmade_controllers.m:118:31
	cmpl	$2, %ecx
Ltmp41:
	.loc	1 118 17                ## ../handmade/code/osx_handmade_controllers.m:118:17
	jne	LBB4_19
## %bb.18:
Ltmp42:
	.loc	1 119 17 is_stmt 1      ## ../handmade/code/osx_handmade_controllers.m:119:17
	movq	_keyboardController(%rip), %rax
	.loc	1 119 36 is_stmt 0      ## ../handmade/code/osx_handmade_controllers.m:119:36
	movq	L_OBJC_SELECTOR_REFERENCES_.36(%rip), %rsi
	movq	%rax, %rdi
	movl	$1, %edx
	callq	*_objc_msgSend@GOTPCREL(%rip)
	.loc	1 120 17 is_stmt 1      ## ../handmade/code/osx_handmade_controllers.m:120:17
	jmp	LBB4_52
Ltmp43:
LBB4_19:
	.loc	1 123 17                ## ../handmade/code/osx_handmade_controllers.m:123:17
	movq	-24(%rbp), %rax
	.loc	1 123 23 is_stmt 0      ## ../handmade/code/osx_handmade_controllers.m:123:23
	movq	L_OBJC_SELECTOR_REFERENCES_.22(%rip), %rsi
	movq	%rax, %rdi
	callq	*_objc_msgSend@GOTPCREL(%rip)
	.loc	1 123 17                ## ../handmade/code/osx_handmade_controllers.m:123:17
	movzwl	%ax, %ecx
	.loc	1 123 31                ## ../handmade/code/osx_handmade_controllers.m:123:31
	cmpl	$3, %ecx
Ltmp44:
	.loc	1 123 17                ## ../handmade/code/osx_handmade_controllers.m:123:17
	jne	LBB4_21
## %bb.20:
Ltmp45:
	.loc	1 124 17 is_stmt 1      ## ../handmade/code/osx_handmade_controllers.m:124:17
	movq	_keyboardController(%rip), %rax
	.loc	1 124 36 is_stmt 0      ## ../handmade/code/osx_handmade_controllers.m:124:36
	movq	L_OBJC_SELECTOR_REFERENCES_.38(%rip), %rsi
	movq	%rax, %rdi
	movl	$1, %edx
	callq	*_objc_msgSend@GOTPCREL(%rip)
	.loc	1 125 17 is_stmt 1      ## ../handmade/code/osx_handmade_controllers.m:125:17
	jmp	LBB4_52
Ltmp46:
LBB4_21:
	.loc	1 128 17                ## ../handmade/code/osx_handmade_controllers.m:128:17
	movq	-24(%rbp), %rax
	.loc	1 128 23 is_stmt 0      ## ../handmade/code/osx_handmade_controllers.m:128:23
	movq	L_OBJC_SELECTOR_REFERENCES_.22(%rip), %rsi
	movq	%rax, %rdi
	callq	*_objc_msgSend@GOTPCREL(%rip)
	.loc	1 128 17                ## ../handmade/code/osx_handmade_controllers.m:128:17
	movzwl	%ax, %ecx
	.loc	1 128 31                ## ../handmade/code/osx_handmade_controllers.m:128:31
	cmpl	$12, %ecx
Ltmp47:
	.loc	1 128 17                ## ../handmade/code/osx_handmade_controllers.m:128:17
	jne	LBB4_23
## %bb.22:
Ltmp48:
	.loc	1 129 17 is_stmt 1      ## ../handmade/code/osx_handmade_controllers.m:129:17
	movq	_keyboardController(%rip), %rax
	.loc	1 129 36 is_stmt 0      ## ../handmade/code/osx_handmade_controllers.m:129:36
	movq	L_OBJC_SELECTOR_REFERENCES_.40(%rip), %rsi
	movq	%rax, %rdi
	movl	$1, %edx
	callq	*_objc_msgSend@GOTPCREL(%rip)
	.loc	1 130 17 is_stmt 1      ## ../handmade/code/osx_handmade_controllers.m:130:17
	jmp	LBB4_52
Ltmp49:
LBB4_23:
	.loc	1 133 17                ## ../handmade/code/osx_handmade_controllers.m:133:17
	movq	-24(%rbp), %rax
	.loc	1 133 23 is_stmt 0      ## ../handmade/code/osx_handmade_controllers.m:133:23
	movq	L_OBJC_SELECTOR_REFERENCES_.22(%rip), %rsi
	movq	%rax, %rdi
	callq	*_objc_msgSend@GOTPCREL(%rip)
	.loc	1 133 17                ## ../handmade/code/osx_handmade_controllers.m:133:17
	movzwl	%ax, %ecx
	.loc	1 133 31                ## ../handmade/code/osx_handmade_controllers.m:133:31
	cmpl	$15, %ecx
Ltmp50:
	.loc	1 133 17                ## ../handmade/code/osx_handmade_controllers.m:133:17
	jne	LBB4_25
## %bb.24:
Ltmp51:
	.loc	1 134 17 is_stmt 1      ## ../handmade/code/osx_handmade_controllers.m:134:17
	movq	_keyboardController(%rip), %rax
	.loc	1 134 36 is_stmt 0      ## ../handmade/code/osx_handmade_controllers.m:134:36
	movq	L_OBJC_SELECTOR_REFERENCES_.42(%rip), %rsi
	movq	%rax, %rdi
	movl	$1, %edx
	callq	*_objc_msgSend@GOTPCREL(%rip)
	.loc	1 135 17 is_stmt 1      ## ../handmade/code/osx_handmade_controllers.m:135:17
	jmp	LBB4_52
Ltmp52:
LBB4_25:
	.loc	1 133 34                ## ../handmade/code/osx_handmade_controllers.m:133:34
	jmp	LBB4_26
Ltmp53:
LBB4_26:
	.loc	1 139 17                ## ../handmade/code/osx_handmade_controllers.m:139:17
	movq	-24(%rbp), %rax
	.loc	1 139 23 is_stmt 0      ## ../handmade/code/osx_handmade_controllers.m:139:23
	movq	L_OBJC_SELECTOR_REFERENCES_.22(%rip), %rsi
	movq	%rax, %rdi
	callq	*_objc_msgSend@GOTPCREL(%rip)
	.loc	1 139 17                ## ../handmade/code/osx_handmade_controllers.m:139:17
	movzwl	%ax, %ecx
	.loc	1 139 31                ## ../handmade/code/osx_handmade_controllers.m:139:31
	cmpl	$123, %ecx
	.loc	1 139 51                ## ../handmade/code/osx_handmade_controllers.m:139:51
	jne	LBB4_29
## %bb.27:
	.loc	1 140 17 is_stmt 1      ## ../handmade/code/osx_handmade_controllers.m:140:17
	movq	_keyboardController(%rip), %rax
	.loc	1 140 36 is_stmt 0      ## ../handmade/code/osx_handmade_controllers.m:140:36
	movq	L_OBJC_SELECTOR_REFERENCES_.24(%rip), %rsi
	movq	%rax, %rdi
	callq	*_objc_msgSend@GOTPCREL(%rip)
	.loc	1 140 42                ## ../handmade/code/osx_handmade_controllers.m:140:42
	cmpq	$-1, %rax
Ltmp54:
	.loc	1 139 17 is_stmt 1      ## ../handmade/code/osx_handmade_controllers.m:139:17
	jne	LBB4_29
## %bb.28:
	.loc	1 0 17 is_stmt 0        ## ../handmade/code/osx_handmade_controllers.m:0:17
	xorl	%eax, %eax
	movl	%eax, %edx
Ltmp55:
	.loc	1 141 17 is_stmt 1      ## ../handmade/code/osx_handmade_controllers.m:141:17
	movq	_keyboardController(%rip), %rcx
	.loc	1 141 36 is_stmt 0      ## ../handmade/code/osx_handmade_controllers.m:141:36
	movq	L_OBJC_SELECTOR_REFERENCES_.26(%rip), %rsi
	movq	%rcx, %rdi
	callq	*_objc_msgSend@GOTPCREL(%rip)
	.loc	1 142 17 is_stmt 1      ## ../handmade/code/osx_handmade_controllers.m:142:17
	jmp	LBB4_52
Ltmp56:
LBB4_29:
	.loc	1 145 17                ## ../handmade/code/osx_handmade_controllers.m:145:17
	movq	-24(%rbp), %rax
	.loc	1 145 23 is_stmt 0      ## ../handmade/code/osx_handmade_controllers.m:145:23
	movq	L_OBJC_SELECTOR_REFERENCES_.22(%rip), %rsi
	movq	%rax, %rdi
	callq	*_objc_msgSend@GOTPCREL(%rip)
	.loc	1 145 17                ## ../handmade/code/osx_handmade_controllers.m:145:17
	movzwl	%ax, %ecx
	.loc	1 145 31                ## ../handmade/code/osx_handmade_controllers.m:145:31
	cmpl	$124, %ecx
	.loc	1 145 52                ## ../handmade/code/osx_handmade_controllers.m:145:52
	jne	LBB4_32
## %bb.30:
	.loc	1 146 17 is_stmt 1      ## ../handmade/code/osx_handmade_controllers.m:146:17
	movq	_keyboardController(%rip), %rax
	.loc	1 146 36 is_stmt 0      ## ../handmade/code/osx_handmade_controllers.m:146:36
	movq	L_OBJC_SELECTOR_REFERENCES_.24(%rip), %rsi
	movq	%rax, %rdi
	callq	*_objc_msgSend@GOTPCREL(%rip)
	.loc	1 146 42                ## ../handmade/code/osx_handmade_controllers.m:146:42
	cmpq	$1, %rax
Ltmp57:
	.loc	1 145 17 is_stmt 1      ## ../handmade/code/osx_handmade_controllers.m:145:17
	jne	LBB4_32
## %bb.31:
	.loc	1 0 17 is_stmt 0        ## ../handmade/code/osx_handmade_controllers.m:0:17
	xorl	%eax, %eax
	movl	%eax, %edx
Ltmp58:
	.loc	1 147 17 is_stmt 1      ## ../handmade/code/osx_handmade_controllers.m:147:17
	movq	_keyboardController(%rip), %rcx
	.loc	1 147 36 is_stmt 0      ## ../handmade/code/osx_handmade_controllers.m:147:36
	movq	L_OBJC_SELECTOR_REFERENCES_.26(%rip), %rsi
	movq	%rcx, %rdi
	callq	*_objc_msgSend@GOTPCREL(%rip)
	.loc	1 148 17 is_stmt 1      ## ../handmade/code/osx_handmade_controllers.m:148:17
	jmp	LBB4_52
Ltmp59:
LBB4_32:
	.loc	1 151 17                ## ../handmade/code/osx_handmade_controllers.m:151:17
	movq	-24(%rbp), %rax
	.loc	1 151 23 is_stmt 0      ## ../handmade/code/osx_handmade_controllers.m:151:23
	movq	L_OBJC_SELECTOR_REFERENCES_.22(%rip), %rsi
	movq	%rax, %rdi
	callq	*_objc_msgSend@GOTPCREL(%rip)
	.loc	1 151 17                ## ../handmade/code/osx_handmade_controllers.m:151:17
	movzwl	%ax, %ecx
	.loc	1 151 31                ## ../handmade/code/osx_handmade_controllers.m:151:31
	cmpl	$125, %ecx
	.loc	1 151 51                ## ../handmade/code/osx_handmade_controllers.m:151:51
	jne	LBB4_35
## %bb.33:
	.loc	1 152 17 is_stmt 1      ## ../handmade/code/osx_handmade_controllers.m:152:17
	movq	_keyboardController(%rip), %rax
	.loc	1 152 36 is_stmt 0      ## ../handmade/code/osx_handmade_controllers.m:152:36
	movq	L_OBJC_SELECTOR_REFERENCES_.28(%rip), %rsi
	movq	%rax, %rdi
	callq	*_objc_msgSend@GOTPCREL(%rip)
	.loc	1 152 42                ## ../handmade/code/osx_handmade_controllers.m:152:42
	cmpq	$1, %rax
Ltmp60:
	.loc	1 151 17 is_stmt 1      ## ../handmade/code/osx_handmade_controllers.m:151:17
	jne	LBB4_35
## %bb.34:
	.loc	1 0 17 is_stmt 0        ## ../handmade/code/osx_handmade_controllers.m:0:17
	xorl	%eax, %eax
	movl	%eax, %edx
Ltmp61:
	.loc	1 153 17 is_stmt 1      ## ../handmade/code/osx_handmade_controllers.m:153:17
	movq	_keyboardController(%rip), %rcx
	.loc	1 153 36 is_stmt 0      ## ../handmade/code/osx_handmade_controllers.m:153:36
	movq	L_OBJC_SELECTOR_REFERENCES_.30(%rip), %rsi
	movq	%rcx, %rdi
	callq	*_objc_msgSend@GOTPCREL(%rip)
	.loc	1 154 17 is_stmt 1      ## ../handmade/code/osx_handmade_controllers.m:154:17
	jmp	LBB4_52
Ltmp62:
LBB4_35:
	.loc	1 157 17                ## ../handmade/code/osx_handmade_controllers.m:157:17
	movq	-24(%rbp), %rax
	.loc	1 157 23 is_stmt 0      ## ../handmade/code/osx_handmade_controllers.m:157:23
	movq	L_OBJC_SELECTOR_REFERENCES_.22(%rip), %rsi
	movq	%rax, %rdi
	callq	*_objc_msgSend@GOTPCREL(%rip)
	.loc	1 157 17                ## ../handmade/code/osx_handmade_controllers.m:157:17
	movzwl	%ax, %ecx
	.loc	1 157 31                ## ../handmade/code/osx_handmade_controllers.m:157:31
	cmpl	$126, %ecx
	.loc	1 157 49                ## ../handmade/code/osx_handmade_controllers.m:157:49
	jne	LBB4_38
## %bb.36:
	.loc	1 158 17 is_stmt 1      ## ../handmade/code/osx_handmade_controllers.m:158:17
	movq	_keyboardController(%rip), %rax
	.loc	1 158 36 is_stmt 0      ## ../handmade/code/osx_handmade_controllers.m:158:36
	movq	L_OBJC_SELECTOR_REFERENCES_.28(%rip), %rsi
	movq	%rax, %rdi
	callq	*_objc_msgSend@GOTPCREL(%rip)
	.loc	1 158 42                ## ../handmade/code/osx_handmade_controllers.m:158:42
	cmpq	$-1, %rax
Ltmp63:
	.loc	1 157 17 is_stmt 1      ## ../handmade/code/osx_handmade_controllers.m:157:17
	jne	LBB4_38
## %bb.37:
	.loc	1 0 17 is_stmt 0        ## ../handmade/code/osx_handmade_controllers.m:0:17
	xorl	%eax, %eax
	movl	%eax, %edx
Ltmp64:
	.loc	1 159 17 is_stmt 1      ## ../handmade/code/osx_handmade_controllers.m:159:17
	movq	_keyboardController(%rip), %rcx
	.loc	1 159 36 is_stmt 0      ## ../handmade/code/osx_handmade_controllers.m:159:36
	movq	L_OBJC_SELECTOR_REFERENCES_.30(%rip), %rsi
	movq	%rcx, %rdi
	callq	*_objc_msgSend@GOTPCREL(%rip)
	.loc	1 160 17 is_stmt 1      ## ../handmade/code/osx_handmade_controllers.m:160:17
	jmp	LBB4_52
Ltmp65:
LBB4_38:
	.loc	1 163 17                ## ../handmade/code/osx_handmade_controllers.m:163:17
	movq	-24(%rbp), %rax
	.loc	1 163 23 is_stmt 0      ## ../handmade/code/osx_handmade_controllers.m:163:23
	movq	L_OBJC_SELECTOR_REFERENCES_.22(%rip), %rsi
	movq	%rax, %rdi
	callq	*_objc_msgSend@GOTPCREL(%rip)
	.loc	1 163 17                ## ../handmade/code/osx_handmade_controllers.m:163:17
	movzwl	%ax, %ecx
	.loc	1 163 31                ## ../handmade/code/osx_handmade_controllers.m:163:31
	cmpl	$0, %ecx
Ltmp66:
	.loc	1 163 17                ## ../handmade/code/osx_handmade_controllers.m:163:17
	jne	LBB4_40
## %bb.39:
	.loc	1 0 17                  ## ../handmade/code/osx_handmade_controllers.m:0:17
	xorl	%edx, %edx
Ltmp67:
	.loc	1 164 17 is_stmt 1      ## ../handmade/code/osx_handmade_controllers.m:164:17
	movq	_keyboardController(%rip), %rax
	.loc	1 164 36 is_stmt 0      ## ../handmade/code/osx_handmade_controllers.m:164:36
	movq	L_OBJC_SELECTOR_REFERENCES_.32(%rip), %rsi
	movq	%rax, %rdi
	callq	*_objc_msgSend@GOTPCREL(%rip)
	.loc	1 165 17 is_stmt 1      ## ../handmade/code/osx_handmade_controllers.m:165:17
	jmp	LBB4_52
Ltmp68:
LBB4_40:
	.loc	1 168 17                ## ../handmade/code/osx_handmade_controllers.m:168:17
	movq	-24(%rbp), %rax
	.loc	1 168 23 is_stmt 0      ## ../handmade/code/osx_handmade_controllers.m:168:23
	movq	L_OBJC_SELECTOR_REFERENCES_.22(%rip), %rsi
	movq	%rax, %rdi
	callq	*_objc_msgSend@GOTPCREL(%rip)
	.loc	1 168 17                ## ../handmade/code/osx_handmade_controllers.m:168:17
	movzwl	%ax, %ecx
	.loc	1 168 31                ## ../handmade/code/osx_handmade_controllers.m:168:31
	cmpl	$1, %ecx
Ltmp69:
	.loc	1 168 17                ## ../handmade/code/osx_handmade_controllers.m:168:17
	jne	LBB4_42
## %bb.41:
	.loc	1 0 17                  ## ../handmade/code/osx_handmade_controllers.m:0:17
	xorl	%edx, %edx
Ltmp70:
	.loc	1 169 17 is_stmt 1      ## ../handmade/code/osx_handmade_controllers.m:169:17
	movq	_keyboardController(%rip), %rax
	.loc	1 169 36 is_stmt 0      ## ../handmade/code/osx_handmade_controllers.m:169:36
	movq	L_OBJC_SELECTOR_REFERENCES_.34(%rip), %rsi
	movq	%rax, %rdi
	callq	*_objc_msgSend@GOTPCREL(%rip)
	.loc	1 170 17 is_stmt 1      ## ../handmade/code/osx_handmade_controllers.m:170:17
	jmp	LBB4_52
Ltmp71:
LBB4_42:
	.loc	1 173 17                ## ../handmade/code/osx_handmade_controllers.m:173:17
	movq	-24(%rbp), %rax
	.loc	1 173 23 is_stmt 0      ## ../handmade/code/osx_handmade_controllers.m:173:23
	movq	L_OBJC_SELECTOR_REFERENCES_.22(%rip), %rsi
	movq	%rax, %rdi
	callq	*_objc_msgSend@GOTPCREL(%rip)
	.loc	1 173 17                ## ../handmade/code/osx_handmade_controllers.m:173:17
	movzwl	%ax, %ecx
	.loc	1 173 31                ## ../handmade/code/osx_handmade_controllers.m:173:31
	cmpl	$2, %ecx
Ltmp72:
	.loc	1 173 17                ## ../handmade/code/osx_handmade_controllers.m:173:17
	jne	LBB4_44
## %bb.43:
	.loc	1 0 17                  ## ../handmade/code/osx_handmade_controllers.m:0:17
	xorl	%edx, %edx
Ltmp73:
	.loc	1 174 17 is_stmt 1      ## ../handmade/code/osx_handmade_controllers.m:174:17
	movq	_keyboardController(%rip), %rax
	.loc	1 174 36 is_stmt 0      ## ../handmade/code/osx_handmade_controllers.m:174:36
	movq	L_OBJC_SELECTOR_REFERENCES_.36(%rip), %rsi
	movq	%rax, %rdi
	callq	*_objc_msgSend@GOTPCREL(%rip)
	.loc	1 175 17 is_stmt 1      ## ../handmade/code/osx_handmade_controllers.m:175:17
	jmp	LBB4_52
Ltmp74:
LBB4_44:
	.loc	1 178 17                ## ../handmade/code/osx_handmade_controllers.m:178:17
	movq	-24(%rbp), %rax
	.loc	1 178 23 is_stmt 0      ## ../handmade/code/osx_handmade_controllers.m:178:23
	movq	L_OBJC_SELECTOR_REFERENCES_.22(%rip), %rsi
	movq	%rax, %rdi
	callq	*_objc_msgSend@GOTPCREL(%rip)
	.loc	1 178 17                ## ../handmade/code/osx_handmade_controllers.m:178:17
	movzwl	%ax, %ecx
	.loc	1 178 31                ## ../handmade/code/osx_handmade_controllers.m:178:31
	cmpl	$3, %ecx
Ltmp75:
	.loc	1 178 17                ## ../handmade/code/osx_handmade_controllers.m:178:17
	jne	LBB4_46
## %bb.45:
	.loc	1 0 17                  ## ../handmade/code/osx_handmade_controllers.m:0:17
	xorl	%edx, %edx
Ltmp76:
	.loc	1 179 17 is_stmt 1      ## ../handmade/code/osx_handmade_controllers.m:179:17
	movq	_keyboardController(%rip), %rax
	.loc	1 179 36 is_stmt 0      ## ../handmade/code/osx_handmade_controllers.m:179:36
	movq	L_OBJC_SELECTOR_REFERENCES_.38(%rip), %rsi
	movq	%rax, %rdi
	callq	*_objc_msgSend@GOTPCREL(%rip)
	.loc	1 180 17 is_stmt 1      ## ../handmade/code/osx_handmade_controllers.m:180:17
	jmp	LBB4_52
Ltmp77:
LBB4_46:
	.loc	1 183 17                ## ../handmade/code/osx_handmade_controllers.m:183:17
	movq	-24(%rbp), %rax
	.loc	1 183 23 is_stmt 0      ## ../handmade/code/osx_handmade_controllers.m:183:23
	movq	L_OBJC_SELECTOR_REFERENCES_.22(%rip), %rsi
	movq	%rax, %rdi
	callq	*_objc_msgSend@GOTPCREL(%rip)
	.loc	1 183 17                ## ../handmade/code/osx_handmade_controllers.m:183:17
	movzwl	%ax, %ecx
	.loc	1 183 31                ## ../handmade/code/osx_handmade_controllers.m:183:31
	cmpl	$12, %ecx
Ltmp78:
	.loc	1 183 17                ## ../handmade/code/osx_handmade_controllers.m:183:17
	jne	LBB4_48
## %bb.47:
	.loc	1 0 17                  ## ../handmade/code/osx_handmade_controllers.m:0:17
	xorl	%edx, %edx
Ltmp79:
	.loc	1 184 17 is_stmt 1      ## ../handmade/code/osx_handmade_controllers.m:184:17
	movq	_keyboardController(%rip), %rax
	.loc	1 184 36 is_stmt 0      ## ../handmade/code/osx_handmade_controllers.m:184:36
	movq	L_OBJC_SELECTOR_REFERENCES_.40(%rip), %rsi
	movq	%rax, %rdi
	callq	*_objc_msgSend@GOTPCREL(%rip)
	.loc	1 185 17 is_stmt 1      ## ../handmade/code/osx_handmade_controllers.m:185:17
	jmp	LBB4_52
Ltmp80:
LBB4_48:
	.loc	1 188 17                ## ../handmade/code/osx_handmade_controllers.m:188:17
	movq	-24(%rbp), %rax
	.loc	1 188 23 is_stmt 0      ## ../handmade/code/osx_handmade_controllers.m:188:23
	movq	L_OBJC_SELECTOR_REFERENCES_.22(%rip), %rsi
	movq	%rax, %rdi
	callq	*_objc_msgSend@GOTPCREL(%rip)
	.loc	1 188 17                ## ../handmade/code/osx_handmade_controllers.m:188:17
	movzwl	%ax, %ecx
	.loc	1 188 31                ## ../handmade/code/osx_handmade_controllers.m:188:31
	cmpl	$15, %ecx
Ltmp81:
	.loc	1 188 17                ## ../handmade/code/osx_handmade_controllers.m:188:17
	jne	LBB4_50
## %bb.49:
	.loc	1 0 17                  ## ../handmade/code/osx_handmade_controllers.m:0:17
	xorl	%edx, %edx
Ltmp82:
	.loc	1 189 17 is_stmt 1      ## ../handmade/code/osx_handmade_controllers.m:189:17
	movq	_keyboardController(%rip), %rax
	.loc	1 189 36 is_stmt 0      ## ../handmade/code/osx_handmade_controllers.m:189:36
	movq	L_OBJC_SELECTOR_REFERENCES_.42(%rip), %rsi
	movq	%rax, %rdi
	callq	*_objc_msgSend@GOTPCREL(%rip)
	.loc	1 190 17 is_stmt 1      ## ../handmade/code/osx_handmade_controllers.m:190:17
	jmp	LBB4_52
Ltmp83:
LBB4_50:
	.loc	1 188 34                ## ../handmade/code/osx_handmade_controllers.m:188:34
	jmp	LBB4_51
Ltmp84:
LBB4_51:
	.loc	1 194 9                 ## ../handmade/code/osx_handmade_controllers.m:194:9
	jmp	LBB4_52
Ltmp85:
LBB4_52:
	.loc	1 196 1                 ## ../handmade/code/osx_handmade_controllers.m:196:1
	addq	$48, %rsp
	popq	%rbp
	retq
Ltmp86:
Lfunc_end4:
	.cfi_endproc
                                        ## -- End function
	.p2align	4, 0x90         ## -- Begin function -[OSXHandmadeController dpadX]
"-[OSXHandmadeController dpadX]":       ## @"\01-[OSXHandmadeController dpadX]"
Lfunc_begin5:
	.loc	5 14 0                  ## ../handmade/code/osx_handmade_controllers.h:14:0
	.cfi_startproc
## %bb.0:
	pushq	%rbp
	.cfi_def_cfa_offset 16
	.cfi_offset %rbp, -16
	movq	%rsp, %rbp
	.cfi_def_cfa_register %rbp
	movq	%rdi, -8(%rbp)
	movq	%rsi, -16(%rbp)
Ltmp87:
	.loc	5 14 21 prologue_end    ## ../handmade/code/osx_handmade_controllers.h:14:21
	movq	-8(%rbp), %rsi
	movq	_OBJC_IVAR_$_OSXHandmadeController._dpadX(%rip), %rdi
	movq	(%rsi,%rdi), %rax
	popq	%rbp
	retq
Ltmp88:
Lfunc_end5:
	.cfi_endproc
                                        ## -- End function
	.p2align	4, 0x90         ## -- Begin function -[OSXHandmadeController setDpadX:]
"-[OSXHandmadeController setDpadX:]":   ## @"\01-[OSXHandmadeController setDpadX:]"
Lfunc_begin6:
	.loc	5 14 0                  ## ../handmade/code/osx_handmade_controllers.h:14:0
	.cfi_startproc
## %bb.0:
	pushq	%rbp
	.cfi_def_cfa_offset 16
	.cfi_offset %rbp, -16
	movq	%rsp, %rbp
	.cfi_def_cfa_register %rbp
	movq	%rdi, -8(%rbp)
	movq	%rsi, -16(%rbp)
	movq	%rdx, -24(%rbp)
Ltmp89:
	.loc	5 14 21 prologue_end    ## ../handmade/code/osx_handmade_controllers.h:14:21
	movq	-8(%rbp), %rdx
	movq	_OBJC_IVAR_$_OSXHandmadeController._dpadX(%rip), %rsi
	movq	-24(%rbp), %rdi
	movq	%rdi, (%rdx,%rsi)
	popq	%rbp
	retq
Ltmp90:
Lfunc_end6:
	.cfi_endproc
                                        ## -- End function
	.p2align	4, 0x90         ## -- Begin function -[OSXHandmadeController dpadY]
"-[OSXHandmadeController dpadY]":       ## @"\01-[OSXHandmadeController dpadY]"
Lfunc_begin7:
	.loc	5 15 0                  ## ../handmade/code/osx_handmade_controllers.h:15:0
	.cfi_startproc
## %bb.0:
	pushq	%rbp
	.cfi_def_cfa_offset 16
	.cfi_offset %rbp, -16
	movq	%rsp, %rbp
	.cfi_def_cfa_register %rbp
	movq	%rdi, -8(%rbp)
	movq	%rsi, -16(%rbp)
Ltmp91:
	.loc	5 15 21 prologue_end    ## ../handmade/code/osx_handmade_controllers.h:15:21
	movq	-8(%rbp), %rsi
	movq	_OBJC_IVAR_$_OSXHandmadeController._dpadY(%rip), %rdi
	movq	(%rsi,%rdi), %rax
	popq	%rbp
	retq
Ltmp92:
Lfunc_end7:
	.cfi_endproc
                                        ## -- End function
	.p2align	4, 0x90         ## -- Begin function -[OSXHandmadeController setDpadY:]
"-[OSXHandmadeController setDpadY:]":   ## @"\01-[OSXHandmadeController setDpadY:]"
Lfunc_begin8:
	.loc	5 15 0                  ## ../handmade/code/osx_handmade_controllers.h:15:0
	.cfi_startproc
## %bb.0:
	pushq	%rbp
	.cfi_def_cfa_offset 16
	.cfi_offset %rbp, -16
	movq	%rsp, %rbp
	.cfi_def_cfa_register %rbp
	movq	%rdi, -8(%rbp)
	movq	%rsi, -16(%rbp)
	movq	%rdx, -24(%rbp)
Ltmp93:
	.loc	5 15 21 prologue_end    ## ../handmade/code/osx_handmade_controllers.h:15:21
	movq	-8(%rbp), %rdx
	movq	_OBJC_IVAR_$_OSXHandmadeController._dpadY(%rip), %rsi
	movq	-24(%rbp), %rdi
	movq	%rdi, (%rdx,%rsi)
	popq	%rbp
	retq
Ltmp94:
Lfunc_end8:
	.cfi_endproc
                                        ## -- End function
	.p2align	4, 0x90         ## -- Begin function -[OSXHandmadeController buttonAState]
"-[OSXHandmadeController buttonAState]": ## @"\01-[OSXHandmadeController buttonAState]"
Lfunc_begin9:
	.loc	5 18 0                  ## ../handmade/code/osx_handmade_controllers.h:18:0
	.cfi_startproc
## %bb.0:
	pushq	%rbp
	.cfi_def_cfa_offset 16
	.cfi_offset %rbp, -16
	movq	%rsp, %rbp
	.cfi_def_cfa_register %rbp
	movq	%rdi, -8(%rbp)
	movq	%rsi, -16(%rbp)
Ltmp95:
	.loc	5 18 16 prologue_end    ## ../handmade/code/osx_handmade_controllers.h:18:16
	movq	-8(%rbp), %rsi
	movq	_OBJC_IVAR_$_OSXHandmadeController._buttonAState(%rip), %rdi
	movsbl	(%rsi,%rdi), %eax
	popq	%rbp
	retq
Ltmp96:
Lfunc_end9:
	.cfi_endproc
                                        ## -- End function
	.p2align	4, 0x90         ## -- Begin function -[OSXHandmadeController setButtonAState:]
"-[OSXHandmadeController setButtonAState:]": ## @"\01-[OSXHandmadeController setButtonAState:]"
Lfunc_begin10:
	.loc	5 18 0                  ## ../handmade/code/osx_handmade_controllers.h:18:0
	.cfi_startproc
## %bb.0:
	pushq	%rbp
	.cfi_def_cfa_offset 16
	.cfi_offset %rbp, -16
	movq	%rsp, %rbp
	.cfi_def_cfa_register %rbp
	movb	%dl, %al
	movq	%rdi, -8(%rbp)
	movq	%rsi, -16(%rbp)
	movb	%al, -17(%rbp)
Ltmp97:
	.loc	5 18 16 prologue_end    ## ../handmade/code/osx_handmade_controllers.h:18:16
	movq	-8(%rbp), %rsi
	movq	_OBJC_IVAR_$_OSXHandmadeController._buttonAState(%rip), %rdi
	movb	-17(%rbp), %al
	movb	%al, (%rsi,%rdi)
	popq	%rbp
	retq
Ltmp98:
Lfunc_end10:
	.cfi_endproc
                                        ## -- End function
	.p2align	4, 0x90         ## -- Begin function -[OSXHandmadeController buttonBState]
"-[OSXHandmadeController buttonBState]": ## @"\01-[OSXHandmadeController buttonBState]"
Lfunc_begin11:
	.loc	5 19 0                  ## ../handmade/code/osx_handmade_controllers.h:19:0
	.cfi_startproc
## %bb.0:
	pushq	%rbp
	.cfi_def_cfa_offset 16
	.cfi_offset %rbp, -16
	movq	%rsp, %rbp
	.cfi_def_cfa_register %rbp
	movq	%rdi, -8(%rbp)
	movq	%rsi, -16(%rbp)
Ltmp99:
	.loc	5 19 16 prologue_end    ## ../handmade/code/osx_handmade_controllers.h:19:16
	movq	-8(%rbp), %rsi
	movq	_OBJC_IVAR_$_OSXHandmadeController._buttonBState(%rip), %rdi
	movsbl	(%rsi,%rdi), %eax
	popq	%rbp
	retq
Ltmp100:
Lfunc_end11:
	.cfi_endproc
                                        ## -- End function
	.p2align	4, 0x90         ## -- Begin function -[OSXHandmadeController setButtonBState:]
"-[OSXHandmadeController setButtonBState:]": ## @"\01-[OSXHandmadeController setButtonBState:]"
Lfunc_begin12:
	.loc	5 19 0                  ## ../handmade/code/osx_handmade_controllers.h:19:0
	.cfi_startproc
## %bb.0:
	pushq	%rbp
	.cfi_def_cfa_offset 16
	.cfi_offset %rbp, -16
	movq	%rsp, %rbp
	.cfi_def_cfa_register %rbp
	movb	%dl, %al
	movq	%rdi, -8(%rbp)
	movq	%rsi, -16(%rbp)
	movb	%al, -17(%rbp)
Ltmp101:
	.loc	5 19 16 prologue_end    ## ../handmade/code/osx_handmade_controllers.h:19:16
	movq	-8(%rbp), %rsi
	movq	_OBJC_IVAR_$_OSXHandmadeController._buttonBState(%rip), %rdi
	movb	-17(%rbp), %al
	movb	%al, (%rsi,%rdi)
	popq	%rbp
	retq
Ltmp102:
Lfunc_end12:
	.cfi_endproc
                                        ## -- End function
	.p2align	4, 0x90         ## -- Begin function -[OSXHandmadeController buttonXState]
"-[OSXHandmadeController buttonXState]": ## @"\01-[OSXHandmadeController buttonXState]"
Lfunc_begin13:
	.loc	5 20 0                  ## ../handmade/code/osx_handmade_controllers.h:20:0
	.cfi_startproc
## %bb.0:
	pushq	%rbp
	.cfi_def_cfa_offset 16
	.cfi_offset %rbp, -16
	movq	%rsp, %rbp
	.cfi_def_cfa_register %rbp
	movq	%rdi, -8(%rbp)
	movq	%rsi, -16(%rbp)
Ltmp103:
	.loc	5 20 16 prologue_end    ## ../handmade/code/osx_handmade_controllers.h:20:16
	movq	-8(%rbp), %rsi
	movq	_OBJC_IVAR_$_OSXHandmadeController._buttonXState(%rip), %rdi
	movsbl	(%rsi,%rdi), %eax
	popq	%rbp
	retq
Ltmp104:
Lfunc_end13:
	.cfi_endproc
                                        ## -- End function
	.p2align	4, 0x90         ## -- Begin function -[OSXHandmadeController setButtonXState:]
"-[OSXHandmadeController setButtonXState:]": ## @"\01-[OSXHandmadeController setButtonXState:]"
Lfunc_begin14:
	.loc	5 20 0                  ## ../handmade/code/osx_handmade_controllers.h:20:0
	.cfi_startproc
## %bb.0:
	pushq	%rbp
	.cfi_def_cfa_offset 16
	.cfi_offset %rbp, -16
	movq	%rsp, %rbp
	.cfi_def_cfa_register %rbp
	movb	%dl, %al
	movq	%rdi, -8(%rbp)
	movq	%rsi, -16(%rbp)
	movb	%al, -17(%rbp)
Ltmp105:
	.loc	5 20 16 prologue_end    ## ../handmade/code/osx_handmade_controllers.h:20:16
	movq	-8(%rbp), %rsi
	movq	_OBJC_IVAR_$_OSXHandmadeController._buttonXState(%rip), %rdi
	movb	-17(%rbp), %al
	movb	%al, (%rsi,%rdi)
	popq	%rbp
	retq
Ltmp106:
Lfunc_end14:
	.cfi_endproc
                                        ## -- End function
	.p2align	4, 0x90         ## -- Begin function -[OSXHandmadeController buttonYState]
"-[OSXHandmadeController buttonYState]": ## @"\01-[OSXHandmadeController buttonYState]"
Lfunc_begin15:
	.loc	5 21 0                  ## ../handmade/code/osx_handmade_controllers.h:21:0
	.cfi_startproc
## %bb.0:
	pushq	%rbp
	.cfi_def_cfa_offset 16
	.cfi_offset %rbp, -16
	movq	%rsp, %rbp
	.cfi_def_cfa_register %rbp
	movq	%rdi, -8(%rbp)
	movq	%rsi, -16(%rbp)
Ltmp107:
	.loc	5 21 16 prologue_end    ## ../handmade/code/osx_handmade_controllers.h:21:16
	movq	-8(%rbp), %rsi
	movq	_OBJC_IVAR_$_OSXHandmadeController._buttonYState(%rip), %rdi
	movsbl	(%rsi,%rdi), %eax
	popq	%rbp
	retq
Ltmp108:
Lfunc_end15:
	.cfi_endproc
                                        ## -- End function
	.p2align	4, 0x90         ## -- Begin function -[OSXHandmadeController setButtonYState:]
"-[OSXHandmadeController setButtonYState:]": ## @"\01-[OSXHandmadeController setButtonYState:]"
Lfunc_begin16:
	.loc	5 21 0                  ## ../handmade/code/osx_handmade_controllers.h:21:0
	.cfi_startproc
## %bb.0:
	pushq	%rbp
	.cfi_def_cfa_offset 16
	.cfi_offset %rbp, -16
	movq	%rsp, %rbp
	.cfi_def_cfa_register %rbp
	movb	%dl, %al
	movq	%rdi, -8(%rbp)
	movq	%rsi, -16(%rbp)
	movb	%al, -17(%rbp)
Ltmp109:
	.loc	5 21 16 prologue_end    ## ../handmade/code/osx_handmade_controllers.h:21:16
	movq	-8(%rbp), %rsi
	movq	_OBJC_IVAR_$_OSXHandmadeController._buttonYState(%rip), %rdi
	movb	-17(%rbp), %al
	movb	%al, (%rsi,%rdi)
	popq	%rbp
	retq
Ltmp110:
Lfunc_end16:
	.cfi_endproc
                                        ## -- End function
	.p2align	4, 0x90         ## -- Begin function -[OSXHandmadeController buttonLeftShoulderState]
"-[OSXHandmadeController buttonLeftShoulderState]": ## @"\01-[OSXHandmadeController buttonLeftShoulderState]"
Lfunc_begin17:
	.loc	5 24 0                  ## ../handmade/code/osx_handmade_controllers.h:24:0
	.cfi_startproc
## %bb.0:
	pushq	%rbp
	.cfi_def_cfa_offset 16
	.cfi_offset %rbp, -16
	movq	%rsp, %rbp
	.cfi_def_cfa_register %rbp
	movq	%rdi, -8(%rbp)
	movq	%rsi, -16(%rbp)
Ltmp111:
	.loc	5 24 16 prologue_end    ## ../handmade/code/osx_handmade_controllers.h:24:16
	movq	-8(%rbp), %rsi
	movq	_OBJC_IVAR_$_OSXHandmadeController._buttonLeftShoulderState(%rip), %rdi
	movsbl	(%rsi,%rdi), %eax
	popq	%rbp
	retq
Ltmp112:
Lfunc_end17:
	.cfi_endproc
                                        ## -- End function
	.p2align	4, 0x90         ## -- Begin function -[OSXHandmadeController setButtonLeftShoulderState:]
"-[OSXHandmadeController setButtonLeftShoulderState:]": ## @"\01-[OSXHandmadeController setButtonLeftShoulderState:]"
Lfunc_begin18:
	.loc	5 24 0                  ## ../handmade/code/osx_handmade_controllers.h:24:0
	.cfi_startproc
## %bb.0:
	pushq	%rbp
	.cfi_def_cfa_offset 16
	.cfi_offset %rbp, -16
	movq	%rsp, %rbp
	.cfi_def_cfa_register %rbp
	movb	%dl, %al
	movq	%rdi, -8(%rbp)
	movq	%rsi, -16(%rbp)
	movb	%al, -17(%rbp)
Ltmp113:
	.loc	5 24 16 prologue_end    ## ../handmade/code/osx_handmade_controllers.h:24:16
	movq	-8(%rbp), %rsi
	movq	_OBJC_IVAR_$_OSXHandmadeController._buttonLeftShoulderState(%rip), %rdi
	movb	-17(%rbp), %al
	movb	%al, (%rsi,%rdi)
	popq	%rbp
	retq
Ltmp114:
Lfunc_end18:
	.cfi_endproc
                                        ## -- End function
	.p2align	4, 0x90         ## -- Begin function -[OSXHandmadeController buttonRightShoulderState]
"-[OSXHandmadeController buttonRightShoulderState]": ## @"\01-[OSXHandmadeController buttonRightShoulderState]"
Lfunc_begin19:
	.loc	5 25 0                  ## ../handmade/code/osx_handmade_controllers.h:25:0
	.cfi_startproc
## %bb.0:
	pushq	%rbp
	.cfi_def_cfa_offset 16
	.cfi_offset %rbp, -16
	movq	%rsp, %rbp
	.cfi_def_cfa_register %rbp
	movq	%rdi, -8(%rbp)
	movq	%rsi, -16(%rbp)
Ltmp115:
	.loc	5 25 16 prologue_end    ## ../handmade/code/osx_handmade_controllers.h:25:16
	movq	-8(%rbp), %rsi
	movq	_OBJC_IVAR_$_OSXHandmadeController._buttonRightShoulderState(%rip), %rdi
	movsbl	(%rsi,%rdi), %eax
	popq	%rbp
	retq
Ltmp116:
Lfunc_end19:
	.cfi_endproc
                                        ## -- End function
	.p2align	4, 0x90         ## -- Begin function -[OSXHandmadeController setButtonRightShoulderState:]
"-[OSXHandmadeController setButtonRightShoulderState:]": ## @"\01-[OSXHandmadeController setButtonRightShoulderState:]"
Lfunc_begin20:
	.loc	5 25 0                  ## ../handmade/code/osx_handmade_controllers.h:25:0
	.cfi_startproc
## %bb.0:
	pushq	%rbp
	.cfi_def_cfa_offset 16
	.cfi_offset %rbp, -16
	movq	%rsp, %rbp
	.cfi_def_cfa_register %rbp
	movb	%dl, %al
	movq	%rdi, -8(%rbp)
	movq	%rsi, -16(%rbp)
	movb	%al, -17(%rbp)
Ltmp117:
	.loc	5 25 16 prologue_end    ## ../handmade/code/osx_handmade_controllers.h:25:16
	movq	-8(%rbp), %rsi
	movq	_OBJC_IVAR_$_OSXHandmadeController._buttonRightShoulderState(%rip), %rdi
	movb	-17(%rbp), %al
	movb	%al, (%rsi,%rdi)
	popq	%rbp
	retq
Ltmp118:
Lfunc_end20:
	.cfi_endproc
                                        ## -- End function
	.p2align	4, 0x90         ## -- Begin function controllerInput
_controllerInput:                       ## @controllerInput
Lfunc_begin21:
	.loc	1 236 0                 ## ../handmade/code/osx_handmade_controllers.m:236:0
	.cfi_startproc
## %bb.0:
	pushq	%rbp
	.cfi_def_cfa_offset 16
	.cfi_offset %rbp, -16
	movq	%rsp, %rbp
	.cfi_def_cfa_register %rbp
	subq	$96, %rsp
	movq	%rdi, -8(%rbp)
	movl	%esi, -12(%rbp)
	movq	%rdx, -24(%rbp)
	movq	%rcx, -32(%rbp)
Ltmp119:
	.loc	1 238 15 prologue_end   ## ../handmade/code/osx_handmade_controllers.m:238:15
	cmpl	$0, -12(%rbp)
Ltmp120:
	.loc	1 238 8 is_stmt 0       ## ../handmade/code/osx_handmade_controllers.m:238:8
	je	LBB21_2
## %bb.1:
Ltmp121:
	.loc	1 239 9 is_stmt 1       ## ../handmade/code/osx_handmade_controllers.m:239:9
	jmp	LBB21_30
Ltmp122:
LBB21_2:
	.loc	1 242 75                ## ../handmade/code/osx_handmade_controllers.m:242:75
	movq	-8(%rbp), %rax
	.loc	1 242 28 is_stmt 0      ## ../handmade/code/osx_handmade_controllers.m:242:28
	movq	%rax, -40(%rbp)
	.loc	1 244 52 is_stmt 1      ## ../handmade/code/osx_handmade_controllers.m:244:52
	movq	-32(%rbp), %rdi
	.loc	1 244 31 is_stmt 0      ## ../handmade/code/osx_handmade_controllers.m:244:31
	callq	_IOHIDValueGetElement
	.loc	1 244 21                ## ../handmade/code/osx_handmade_controllers.m:244:21
	movq	%rax, -48(%rbp)
	.loc	1 245 49 is_stmt 1      ## ../handmade/code/osx_handmade_controllers.m:245:49
	movq	-48(%rbp), %rdi
	.loc	1 245 24 is_stmt 0      ## ../handmade/code/osx_handmade_controllers.m:245:24
	callq	_IOHIDElementGetUsagePage
	.loc	1 245 12                ## ../handmade/code/osx_handmade_controllers.m:245:12
	movl	%eax, -52(%rbp)
	.loc	1 246 41 is_stmt 1      ## ../handmade/code/osx_handmade_controllers.m:246:41
	movq	-48(%rbp), %rdi
	.loc	1 246 20 is_stmt 0      ## ../handmade/code/osx_handmade_controllers.m:246:20
	callq	_IOHIDElementGetUsage
	.loc	1 246 12                ## ../handmade/code/osx_handmade_controllers.m:246:12
	movl	%eax, -56(%rbp)
Ltmp123:
	.loc	1 249 18 is_stmt 1      ## ../handmade/code/osx_handmade_controllers.m:249:18
	cmpl	$9, -52(%rbp)
Ltmp124:
	.loc	1 249 8 is_stmt 0       ## ../handmade/code/osx_handmade_controllers.m:249:8
	jne	LBB21_16
## %bb.3:
Ltmp125:
	.loc	1 250 60 is_stmt 1      ## ../handmade/code/osx_handmade_controllers.m:250:60
	movq	-32(%rbp), %rdi
	.loc	1 250 34 is_stmt 0      ## ../handmade/code/osx_handmade_controllers.m:250:34
	callq	_IOHIDValueGetIntegerValue
	.loc	1 250 28                ## ../handmade/code/osx_handmade_controllers.m:250:28
	movb	%al, %cl
	.loc	1 250 14                ## ../handmade/code/osx_handmade_controllers.m:250:14
	movb	%cl, -57(%rbp)
Ltmp126:
	.loc	1 251 12 is_stmt 1      ## ../handmade/code/osx_handmade_controllers.m:251:12
	movl	-56(%rbp), %edx
	movl	%edx, %eax
	.loc	1 251 21 is_stmt 0      ## ../handmade/code/osx_handmade_controllers.m:251:21
	movq	-40(%rbp), %rdi
	movq	_OBJC_IVAR_$_OSXHandmadeController._buttonAUsageID(%rip), %rsi
	.loc	1 251 18                ## ../handmade/code/osx_handmade_controllers.m:251:18
	cmpq	(%rdi,%rsi), %rax
Ltmp127:
	.loc	1 251 12                ## ../handmade/code/osx_handmade_controllers.m:251:12
	jne	LBB21_5
## %bb.4:
Ltmp128:
	.loc	1 251 80                ## ../handmade/code/osx_handmade_controllers.m:251:80
	movb	-57(%rbp), %al
	.loc	1 251 52                ## ../handmade/code/osx_handmade_controllers.m:251:52
	movq	-40(%rbp), %rcx
	movq	_OBJC_IVAR_$_OSXHandmadeController._buttonAState(%rip), %rdx
	.loc	1 251 78                ## ../handmade/code/osx_handmade_controllers.m:251:78
	movb	%al, (%rcx,%rdx)
Ltmp129:
LBB21_5:
	.loc	1 252 12 is_stmt 1      ## ../handmade/code/osx_handmade_controllers.m:252:12
	movl	-56(%rbp), %eax
	movl	%eax, %ecx
	.loc	1 252 21 is_stmt 0      ## ../handmade/code/osx_handmade_controllers.m:252:21
	movq	-40(%rbp), %rdx
	movq	_OBJC_IVAR_$_OSXHandmadeController._buttonBUsageID(%rip), %rsi
	.loc	1 252 18                ## ../handmade/code/osx_handmade_controllers.m:252:18
	cmpq	(%rdx,%rsi), %rcx
Ltmp130:
	.loc	1 252 12                ## ../handmade/code/osx_handmade_controllers.m:252:12
	jne	LBB21_7
## %bb.6:
Ltmp131:
	.loc	1 252 80                ## ../handmade/code/osx_handmade_controllers.m:252:80
	movb	-57(%rbp), %al
	.loc	1 252 52                ## ../handmade/code/osx_handmade_controllers.m:252:52
	movq	-40(%rbp), %rcx
	movq	_OBJC_IVAR_$_OSXHandmadeController._buttonBState(%rip), %rdx
	.loc	1 252 78                ## ../handmade/code/osx_handmade_controllers.m:252:78
	movb	%al, (%rcx,%rdx)
Ltmp132:
LBB21_7:
	.loc	1 253 12 is_stmt 1      ## ../handmade/code/osx_handmade_controllers.m:253:12
	movl	-56(%rbp), %eax
	movl	%eax, %ecx
	.loc	1 253 21 is_stmt 0      ## ../handmade/code/osx_handmade_controllers.m:253:21
	movq	-40(%rbp), %rdx
	movq	_OBJC_IVAR_$_OSXHandmadeController._buttonXUsageID(%rip), %rsi
	.loc	1 253 18                ## ../handmade/code/osx_handmade_controllers.m:253:18
	cmpq	(%rdx,%rsi), %rcx
Ltmp133:
	.loc	1 253 12                ## ../handmade/code/osx_handmade_controllers.m:253:12
	jne	LBB21_9
## %bb.8:
Ltmp134:
	.loc	1 253 80                ## ../handmade/code/osx_handmade_controllers.m:253:80
	movb	-57(%rbp), %al
	.loc	1 253 52                ## ../handmade/code/osx_handmade_controllers.m:253:52
	movq	-40(%rbp), %rcx
	movq	_OBJC_IVAR_$_OSXHandmadeController._buttonXState(%rip), %rdx
	.loc	1 253 78                ## ../handmade/code/osx_handmade_controllers.m:253:78
	movb	%al, (%rcx,%rdx)
Ltmp135:
LBB21_9:
	.loc	1 254 12 is_stmt 1      ## ../handmade/code/osx_handmade_controllers.m:254:12
	movl	-56(%rbp), %eax
	movl	%eax, %ecx
	.loc	1 254 21 is_stmt 0      ## ../handmade/code/osx_handmade_controllers.m:254:21
	movq	-40(%rbp), %rdx
	movq	_OBJC_IVAR_$_OSXHandmadeController._buttonYUsageID(%rip), %rsi
	.loc	1 254 18                ## ../handmade/code/osx_handmade_controllers.m:254:18
	cmpq	(%rdx,%rsi), %rcx
Ltmp136:
	.loc	1 254 12                ## ../handmade/code/osx_handmade_controllers.m:254:12
	jne	LBB21_11
## %bb.10:
Ltmp137:
	.loc	1 254 80                ## ../handmade/code/osx_handmade_controllers.m:254:80
	movb	-57(%rbp), %al
	.loc	1 254 52                ## ../handmade/code/osx_handmade_controllers.m:254:52
	movq	-40(%rbp), %rcx
	movq	_OBJC_IVAR_$_OSXHandmadeController._buttonYState(%rip), %rdx
	.loc	1 254 78                ## ../handmade/code/osx_handmade_controllers.m:254:78
	movb	%al, (%rcx,%rdx)
Ltmp138:
LBB21_11:
	.loc	1 255 12 is_stmt 1      ## ../handmade/code/osx_handmade_controllers.m:255:12
	movl	-56(%rbp), %eax
	movl	%eax, %ecx
	.loc	1 255 21 is_stmt 0      ## ../handmade/code/osx_handmade_controllers.m:255:21
	movq	-40(%rbp), %rdx
	movq	_OBJC_IVAR_$_OSXHandmadeController._lShoulderUsageID(%rip), %rsi
	.loc	1 255 18                ## ../handmade/code/osx_handmade_controllers.m:255:18
	cmpq	(%rdx,%rsi), %rcx
Ltmp139:
	.loc	1 255 12                ## ../handmade/code/osx_handmade_controllers.m:255:12
	jne	LBB21_13
## %bb.12:
Ltmp140:
	.loc	1 255 93                ## ../handmade/code/osx_handmade_controllers.m:255:93
	movb	-57(%rbp), %al
	.loc	1 255 54                ## ../handmade/code/osx_handmade_controllers.m:255:54
	movq	-40(%rbp), %rcx
	movq	_OBJC_IVAR_$_OSXHandmadeController._buttonLeftShoulderState(%rip), %rdx
	.loc	1 255 91                ## ../handmade/code/osx_handmade_controllers.m:255:91
	movb	%al, (%rcx,%rdx)
Ltmp141:
LBB21_13:
	.loc	1 256 12 is_stmt 1      ## ../handmade/code/osx_handmade_controllers.m:256:12
	movl	-56(%rbp), %eax
	movl	%eax, %ecx
	.loc	1 256 21 is_stmt 0      ## ../handmade/code/osx_handmade_controllers.m:256:21
	movq	-40(%rbp), %rdx
	movq	_OBJC_IVAR_$_OSXHandmadeController._rShoulderUsageID(%rip), %rsi
	.loc	1 256 18                ## ../handmade/code/osx_handmade_controllers.m:256:18
	cmpq	(%rdx,%rsi), %rcx
Ltmp142:
	.loc	1 256 12                ## ../handmade/code/osx_handmade_controllers.m:256:12
	jne	LBB21_15
## %bb.14:
Ltmp143:
	.loc	1 256 94                ## ../handmade/code/osx_handmade_controllers.m:256:94
	movb	-57(%rbp), %al
	.loc	1 256 54                ## ../handmade/code/osx_handmade_controllers.m:256:54
	movq	-40(%rbp), %rcx
	movq	_OBJC_IVAR_$_OSXHandmadeController._buttonRightShoulderState(%rip), %rdx
	.loc	1 256 92                ## ../handmade/code/osx_handmade_controllers.m:256:92
	movb	%al, (%rcx,%rdx)
Ltmp144:
LBB21_15:
	.loc	1 257 5 is_stmt 1       ## ../handmade/code/osx_handmade_controllers.m:257:5
	jmp	LBB21_30
Ltmp145:
LBB21_16:
	.loc	1 260 23                ## ../handmade/code/osx_handmade_controllers.m:260:23
	cmpl	$1, -52(%rbp)
	.loc	1 260 50 is_stmt 0      ## ../handmade/code/osx_handmade_controllers.m:260:50
	jne	LBB21_29
## %bb.17:
	.loc	1 260 59                ## ../handmade/code/osx_handmade_controllers.m:260:59
	cmpl	$57, -56(%rbp)
Ltmp146:
	.loc	1 260 13                ## ../handmade/code/osx_handmade_controllers.m:260:13
	jne	LBB21_29
## %bb.18:
Ltmp147:
	.loc	1 261 56 is_stmt 1      ## ../handmade/code/osx_handmade_controllers.m:261:56
	movq	-32(%rbp), %rdi
	.loc	1 261 30 is_stmt 0      ## ../handmade/code/osx_handmade_controllers.m:261:30
	callq	_IOHIDValueGetIntegerValue
	.loc	1 261 25                ## ../handmade/code/osx_handmade_controllers.m:261:25
	movl	%eax, %ecx
	.loc	1 261 13                ## ../handmade/code/osx_handmade_controllers.m:261:13
	movl	%ecx, -64(%rbp)
	.loc	1 262 19 is_stmt 1      ## ../handmade/code/osx_handmade_controllers.m:262:19
	movq	$0, -72(%rbp)
	.loc	1 263 19                ## ../handmade/code/osx_handmade_controllers.m:263:19
	movq	$0, -80(%rbp)
	.loc	1 265 16                ## ../handmade/code/osx_handmade_controllers.m:265:16
	movl	-64(%rbp), %ecx
	movl	%ecx, %eax
	movq	%rax, %rdi
	subq	$7, %rdi
	.loc	1 265 9 is_stmt 0       ## ../handmade/code/osx_handmade_controllers.m:265:9
	movq	%rax, -88(%rbp)         ## 8-byte Spill
	movq	%rdi, -96(%rbp)         ## 8-byte Spill
	ja	LBB21_27
## %bb.31:
	.loc	1 0 9                   ## ../handmade/code/osx_handmade_controllers.m:0:9
	leaq	LJTI21_0(%rip), %rax
	movq	-88(%rbp), %rcx         ## 8-byte Reload
	movslq	(%rax,%rcx,4), %rdx
	addq	%rax, %rdx
	jmpq	*%rdx
LBB21_19:
Ltmp148:
	.loc	1 266 27 is_stmt 1      ## ../handmade/code/osx_handmade_controllers.m:266:27
	movq	$0, -72(%rbp)
	.loc	1 266 38 is_stmt 0      ## ../handmade/code/osx_handmade_controllers.m:266:38
	movq	$1, -80(%rbp)
	.loc	1 266 43                ## ../handmade/code/osx_handmade_controllers.m:266:43
	jmp	LBB21_28
LBB21_20:
	.loc	1 267 27 is_stmt 1      ## ../handmade/code/osx_handmade_controllers.m:267:27
	movq	$1, -72(%rbp)
	.loc	1 267 38 is_stmt 0      ## ../handmade/code/osx_handmade_controllers.m:267:38
	movq	$1, -80(%rbp)
	.loc	1 267 43                ## ../handmade/code/osx_handmade_controllers.m:267:43
	jmp	LBB21_28
LBB21_21:
	.loc	1 268 27 is_stmt 1      ## ../handmade/code/osx_handmade_controllers.m:268:27
	movq	$1, -72(%rbp)
	.loc	1 268 38 is_stmt 0      ## ../handmade/code/osx_handmade_controllers.m:268:38
	movq	$0, -80(%rbp)
	.loc	1 268 43                ## ../handmade/code/osx_handmade_controllers.m:268:43
	jmp	LBB21_28
LBB21_22:
	.loc	1 269 27 is_stmt 1      ## ../handmade/code/osx_handmade_controllers.m:269:27
	movq	$1, -72(%rbp)
	.loc	1 269 38 is_stmt 0      ## ../handmade/code/osx_handmade_controllers.m:269:38
	movq	$-1, -80(%rbp)
	.loc	1 269 44                ## ../handmade/code/osx_handmade_controllers.m:269:44
	jmp	LBB21_28
LBB21_23:
	.loc	1 270 27 is_stmt 1      ## ../handmade/code/osx_handmade_controllers.m:270:27
	movq	$0, -72(%rbp)
	.loc	1 270 38 is_stmt 0      ## ../handmade/code/osx_handmade_controllers.m:270:38
	movq	$-1, -80(%rbp)
	.loc	1 270 44                ## ../handmade/code/osx_handmade_controllers.m:270:44
	jmp	LBB21_28
LBB21_24:
	.loc	1 271 27 is_stmt 1      ## ../handmade/code/osx_handmade_controllers.m:271:27
	movq	$-1, -72(%rbp)
	.loc	1 271 39 is_stmt 0      ## ../handmade/code/osx_handmade_controllers.m:271:39
	movq	$-1, -80(%rbp)
	.loc	1 271 45                ## ../handmade/code/osx_handmade_controllers.m:271:45
	jmp	LBB21_28
LBB21_25:
	.loc	1 272 27 is_stmt 1      ## ../handmade/code/osx_handmade_controllers.m:272:27
	movq	$-1, -72(%rbp)
	.loc	1 272 39 is_stmt 0      ## ../handmade/code/osx_handmade_controllers.m:272:39
	movq	$0, -80(%rbp)
	.loc	1 272 44                ## ../handmade/code/osx_handmade_controllers.m:272:44
	jmp	LBB21_28
LBB21_26:
	.loc	1 273 27 is_stmt 1      ## ../handmade/code/osx_handmade_controllers.m:273:27
	movq	$-1, -72(%rbp)
	.loc	1 273 39 is_stmt 0      ## ../handmade/code/osx_handmade_controllers.m:273:39
	movq	$1, -80(%rbp)
	.loc	1 273 44                ## ../handmade/code/osx_handmade_controllers.m:273:44
	jmp	LBB21_28
LBB21_27:
	.loc	1 274 28 is_stmt 1      ## ../handmade/code/osx_handmade_controllers.m:274:28
	movq	$0, -72(%rbp)
	.loc	1 274 39 is_stmt 0      ## ../handmade/code/osx_handmade_controllers.m:274:39
	movq	$0, -80(%rbp)
Ltmp149:
LBB21_28:
	.loc	1 278 30 is_stmt 1      ## ../handmade/code/osx_handmade_controllers.m:278:30
	movq	-72(%rbp), %rax
	.loc	1 278 9 is_stmt 0       ## ../handmade/code/osx_handmade_controllers.m:278:9
	movq	-40(%rbp), %rcx
	movq	_OBJC_IVAR_$_OSXHandmadeController._dpadX(%rip), %rdx
	.loc	1 278 28                ## ../handmade/code/osx_handmade_controllers.m:278:28
	movq	%rax, (%rcx,%rdx)
	.loc	1 279 30 is_stmt 1      ## ../handmade/code/osx_handmade_controllers.m:279:30
	movq	-80(%rbp), %rax
	.loc	1 279 9 is_stmt 0       ## ../handmade/code/osx_handmade_controllers.m:279:9
	movq	-40(%rbp), %rcx
	movq	_OBJC_IVAR_$_OSXHandmadeController._dpadY(%rip), %rdx
	.loc	1 279 28                ## ../handmade/code/osx_handmade_controllers.m:279:28
	movq	%rax, (%rcx,%rdx)
Ltmp150:
LBB21_29:
	.loc	1 0 28                  ## ../handmade/code/osx_handmade_controllers.m:0:28
	jmp	LBB21_30
LBB21_30:
	.loc	1 281 1 is_stmt 1       ## ../handmade/code/osx_handmade_controllers.m:281:1
	addq	$96, %rsp
	popq	%rbp
	retq
Ltmp151:
Lfunc_end21:
	.cfi_endproc
	.p2align	2, 0x90
	.data_region jt32
.set L21_0_set_19, LBB21_19-LJTI21_0
.set L21_0_set_20, LBB21_20-LJTI21_0
.set L21_0_set_21, LBB21_21-LJTI21_0
.set L21_0_set_22, LBB21_22-LJTI21_0
.set L21_0_set_23, LBB21_23-LJTI21_0
.set L21_0_set_24, LBB21_24-LJTI21_0
.set L21_0_set_25, LBB21_25-LJTI21_0
.set L21_0_set_26, LBB21_26-LJTI21_0
LJTI21_0:
	.long	L21_0_set_19
	.long	L21_0_set_20
	.long	L21_0_set_21
	.long	L21_0_set_22
	.long	L21_0_set_23
	.long	L21_0_set_24
	.long	L21_0_set_25
	.long	L21_0_set_26
	.end_data_region
                                        ## -- End function
	.section	__TEXT,__const
	.globl	_leftArrowKeyCode       ## @leftArrowKeyCode
	.p2align	1
_leftArrowKeyCode:
	.short	123                     ## 0x7b

	.globl	_rightArrowKeyCode      ## @rightArrowKeyCode
	.p2align	1
_rightArrowKeyCode:
	.short	124                     ## 0x7c

	.globl	_downArrowKeyCode       ## @downArrowKeyCode
	.p2align	1
_downArrowKeyCode:
	.short	125                     ## 0x7d

	.globl	_upArrowKeyCode         ## @upArrowKeyCode
	.p2align	1
_upArrowKeyCode:
	.short	126                     ## 0x7e

	.globl	_aKeyCode               ## @aKeyCode
	.p2align	1
_aKeyCode:
	.short	0                       ## 0x0

	.globl	_sKeyCode               ## @sKeyCode
	.p2align	1
_sKeyCode:
	.short	1                       ## 0x1

	.globl	_dKeyCode               ## @dKeyCode
	.p2align	1
_dKeyCode:
	.short	2                       ## 0x2

	.globl	_fKeyCode               ## @fKeyCode
	.p2align	1
_fKeyCode:
	.short	3                       ## 0x3

	.globl	_qKeyCode               ## @qKeyCode
	.p2align	1
_qKeyCode:
	.short	12                      ## 0xc

	.globl	_rKeyCode               ## @rKeyCode
	.p2align	1
_rKeyCode:
	.short	15                      ## 0xf

.zerofill __DATA,__bss,_HIDManager,8,3  ## @HIDManager
	.section	__DATA,__objc_data
	.globl	_OBJC_CLASS_$_OSXHandmadeController ## @"OBJC_CLASS_$_OSXHandmadeController"
	.p2align	3
_OBJC_CLASS_$_OSXHandmadeController:
	.quad	_OBJC_METACLASS_$_OSXHandmadeController
	.quad	_OBJC_CLASS_$_NSObject
	.quad	__objc_empty_cache
	.quad	0
	.quad	l_OBJC_CLASS_RO_$_OSXHandmadeController

	.section	__DATA,__objc_classrefs,regular,no_dead_strip
	.p2align	3               ## @"OBJC_CLASSLIST_REFERENCES_$_"
L_OBJC_CLASSLIST_REFERENCES_$_:
	.quad	_OBJC_CLASS_$_OSXHandmadeController

	.section	__TEXT,__objc_methname,cstring_literals
L_OBJC_METH_VAR_NAME_:                  ## @OBJC_METH_VAR_NAME_
	.asciz	"alloc"

	.section	__DATA,__objc_selrefs,literal_pointers,no_dead_strip
	.p2align	3               ## @OBJC_SELECTOR_REFERENCES_
L_OBJC_SELECTOR_REFERENCES_:
	.quad	L_OBJC_METH_VAR_NAME_

	.section	__TEXT,__objc_methname,cstring_literals
L_OBJC_METH_VAR_NAME_.1:                ## @OBJC_METH_VAR_NAME_.1
	.asciz	"init"

	.section	__DATA,__objc_selrefs,literal_pointers,no_dead_strip
	.p2align	3               ## @OBJC_SELECTOR_REFERENCES_.2
L_OBJC_SELECTOR_REFERENCES_.2:
	.quad	L_OBJC_METH_VAR_NAME_.1

.zerofill __DATA,__bss,_connectedController,8,3 ## @connectedController
.zerofill __DATA,__bss,_keyboardController,8,3 ## @keyboardController
	.section	__TEXT,__cstring,cstring_literals
L_.str:                                 ## @.str
	.asciz	"Error Initializing OSX Handmade Controllers"

	.section	__DATA,__cfstring
	.p2align	3               ## @_unnamed_cfstring_
L__unnamed_cfstring_:
	.quad	___CFConstantStringClassReference
	.long	1992                    ## 0x7c8
	.space	4
	.quad	L_.str
	.quad	43                      ## 0x2b

	.section	__DATA,__objc_classrefs,regular,no_dead_strip
	.p2align	3               ## @"OBJC_CLASSLIST_REFERENCES_$_.3"
L_OBJC_CLASSLIST_REFERENCES_$_.3:
	.quad	_OBJC_CLASS_$_NSString

	.section	__TEXT,__cstring,cstring_literals
L_.str.4:                               ## @.str.4
	.asciz	"DeviceUsagePage"

	.section	__TEXT,__objc_methname,cstring_literals
L_OBJC_METH_VAR_NAME_.5:                ## @OBJC_METH_VAR_NAME_.5
	.asciz	"stringWithUTF8String:"

	.section	__DATA,__objc_selrefs,literal_pointers,no_dead_strip
	.p2align	3               ## @OBJC_SELECTOR_REFERENCES_.6
L_OBJC_SELECTOR_REFERENCES_.6:
	.quad	L_OBJC_METH_VAR_NAME_.5

	.section	__DATA,__objc_classrefs,regular,no_dead_strip
	.p2align	3               ## @"OBJC_CLASSLIST_REFERENCES_$_.7"
L_OBJC_CLASSLIST_REFERENCES_$_.7:
	.quad	_OBJC_CLASS_$_NSNumber

	.section	__TEXT,__objc_methname,cstring_literals
L_OBJC_METH_VAR_NAME_.8:                ## @OBJC_METH_VAR_NAME_.8
	.asciz	"numberWithInt:"

	.section	__DATA,__objc_selrefs,literal_pointers,no_dead_strip
	.p2align	3               ## @OBJC_SELECTOR_REFERENCES_.9
L_OBJC_SELECTOR_REFERENCES_.9:
	.quad	L_OBJC_METH_VAR_NAME_.8

	.section	__TEXT,__cstring,cstring_literals
L_.str.10:                              ## @.str.10
	.asciz	"DeviceUsage"

	.section	__DATA,__objc_classrefs,regular,no_dead_strip
	.p2align	3               ## @"OBJC_CLASSLIST_REFERENCES_$_.11"
L_OBJC_CLASSLIST_REFERENCES_$_.11:
	.quad	_OBJC_CLASS_$_NSDictionary

	.section	__TEXT,__objc_methname,cstring_literals
L_OBJC_METH_VAR_NAME_.12:               ## @OBJC_METH_VAR_NAME_.12
	.asciz	"dictionaryWithObjects:forKeys:count:"

	.section	__DATA,__objc_selrefs,literal_pointers,no_dead_strip
	.p2align	3               ## @OBJC_SELECTOR_REFERENCES_.13
L_OBJC_SELECTOR_REFERENCES_.13:
	.quad	L_OBJC_METH_VAR_NAME_.12

	.section	__DATA,__objc_classrefs,regular,no_dead_strip
	.p2align	3               ## @"OBJC_CLASSLIST_REFERENCES_$_.14"
L_OBJC_CLASSLIST_REFERENCES_$_.14:
	.quad	_OBJC_CLASS_$_NSArray

	.section	__TEXT,__objc_methname,cstring_literals
L_OBJC_METH_VAR_NAME_.15:               ## @OBJC_METH_VAR_NAME_.15
	.asciz	"arrayWithObjects:count:"

	.section	__DATA,__objc_selrefs,literal_pointers,no_dead_strip
	.p2align	3               ## @OBJC_SELECTOR_REFERENCES_.16
L_OBJC_SELECTOR_REFERENCES_.16:
	.quad	L_OBJC_METH_VAR_NAME_.15

	.section	__TEXT,__cstring,cstring_literals
L_.str.17:                              ## @.str.17
	.asciz	"OSXhandmade Controller initialized."

	.section	__DATA,__cfstring
	.p2align	3               ## @_unnamed_cfstring_.18
L__unnamed_cfstring_.18:
	.quad	___CFConstantStringClassReference
	.long	1992                    ## 0x7c8
	.space	4
	.quad	L_.str.17
	.quad	35                      ## 0x23

.zerofill __DATA,__bss,_controllerInputSource,8,3 ## @controllerInputSource
	.section	__TEXT,__objc_methname,cstring_literals
L_OBJC_METH_VAR_NAME_.19:               ## @OBJC_METH_VAR_NAME_.19
	.asciz	"type"

	.section	__DATA,__objc_selrefs,literal_pointers,no_dead_strip
	.p2align	3               ## @OBJC_SELECTOR_REFERENCES_.20
L_OBJC_SELECTOR_REFERENCES_.20:
	.quad	L_OBJC_METH_VAR_NAME_.19

	.section	__TEXT,__objc_methname,cstring_literals
L_OBJC_METH_VAR_NAME_.21:               ## @OBJC_METH_VAR_NAME_.21
	.asciz	"keyCode"

	.section	__DATA,__objc_selrefs,literal_pointers,no_dead_strip
	.p2align	3               ## @OBJC_SELECTOR_REFERENCES_.22
L_OBJC_SELECTOR_REFERENCES_.22:
	.quad	L_OBJC_METH_VAR_NAME_.21

	.section	__TEXT,__objc_methname,cstring_literals
L_OBJC_METH_VAR_NAME_.23:               ## @OBJC_METH_VAR_NAME_.23
	.asciz	"dpadX"

	.section	__DATA,__objc_selrefs,literal_pointers,no_dead_strip
	.p2align	3               ## @OBJC_SELECTOR_REFERENCES_.24
L_OBJC_SELECTOR_REFERENCES_.24:
	.quad	L_OBJC_METH_VAR_NAME_.23

	.section	__TEXT,__objc_methname,cstring_literals
L_OBJC_METH_VAR_NAME_.25:               ## @OBJC_METH_VAR_NAME_.25
	.asciz	"setDpadX:"

	.section	__DATA,__objc_selrefs,literal_pointers,no_dead_strip
	.p2align	3               ## @OBJC_SELECTOR_REFERENCES_.26
L_OBJC_SELECTOR_REFERENCES_.26:
	.quad	L_OBJC_METH_VAR_NAME_.25

	.section	__TEXT,__objc_methname,cstring_literals
L_OBJC_METH_VAR_NAME_.27:               ## @OBJC_METH_VAR_NAME_.27
	.asciz	"dpadY"

	.section	__DATA,__objc_selrefs,literal_pointers,no_dead_strip
	.p2align	3               ## @OBJC_SELECTOR_REFERENCES_.28
L_OBJC_SELECTOR_REFERENCES_.28:
	.quad	L_OBJC_METH_VAR_NAME_.27

	.section	__TEXT,__objc_methname,cstring_literals
L_OBJC_METH_VAR_NAME_.29:               ## @OBJC_METH_VAR_NAME_.29
	.asciz	"setDpadY:"

	.section	__DATA,__objc_selrefs,literal_pointers,no_dead_strip
	.p2align	3               ## @OBJC_SELECTOR_REFERENCES_.30
L_OBJC_SELECTOR_REFERENCES_.30:
	.quad	L_OBJC_METH_VAR_NAME_.29

	.section	__TEXT,__objc_methname,cstring_literals
L_OBJC_METH_VAR_NAME_.31:               ## @OBJC_METH_VAR_NAME_.31
	.asciz	"setButtonAState:"

	.section	__DATA,__objc_selrefs,literal_pointers,no_dead_strip
	.p2align	3               ## @OBJC_SELECTOR_REFERENCES_.32
L_OBJC_SELECTOR_REFERENCES_.32:
	.quad	L_OBJC_METH_VAR_NAME_.31

	.section	__TEXT,__objc_methname,cstring_literals
L_OBJC_METH_VAR_NAME_.33:               ## @OBJC_METH_VAR_NAME_.33
	.asciz	"setButtonBState:"

	.section	__DATA,__objc_selrefs,literal_pointers,no_dead_strip
	.p2align	3               ## @OBJC_SELECTOR_REFERENCES_.34
L_OBJC_SELECTOR_REFERENCES_.34:
	.quad	L_OBJC_METH_VAR_NAME_.33

	.section	__TEXT,__objc_methname,cstring_literals
L_OBJC_METH_VAR_NAME_.35:               ## @OBJC_METH_VAR_NAME_.35
	.asciz	"setButtonXState:"

	.section	__DATA,__objc_selrefs,literal_pointers,no_dead_strip
	.p2align	3               ## @OBJC_SELECTOR_REFERENCES_.36
L_OBJC_SELECTOR_REFERENCES_.36:
	.quad	L_OBJC_METH_VAR_NAME_.35

	.section	__TEXT,__objc_methname,cstring_literals
L_OBJC_METH_VAR_NAME_.37:               ## @OBJC_METH_VAR_NAME_.37
	.asciz	"setButtonYState:"

	.section	__DATA,__objc_selrefs,literal_pointers,no_dead_strip
	.p2align	3               ## @OBJC_SELECTOR_REFERENCES_.38
L_OBJC_SELECTOR_REFERENCES_.38:
	.quad	L_OBJC_METH_VAR_NAME_.37

	.section	__TEXT,__objc_methname,cstring_literals
L_OBJC_METH_VAR_NAME_.39:               ## @OBJC_METH_VAR_NAME_.39
	.asciz	"setButtonLeftShoulderState:"

	.section	__DATA,__objc_selrefs,literal_pointers,no_dead_strip
	.p2align	3               ## @OBJC_SELECTOR_REFERENCES_.40
L_OBJC_SELECTOR_REFERENCES_.40:
	.quad	L_OBJC_METH_VAR_NAME_.39

	.section	__TEXT,__objc_methname,cstring_literals
L_OBJC_METH_VAR_NAME_.41:               ## @OBJC_METH_VAR_NAME_.41
	.asciz	"setButtonRightShoulderState:"

	.section	__DATA,__objc_selrefs,literal_pointers,no_dead_strip
	.p2align	3               ## @OBJC_SELECTOR_REFERENCES_.42
L_OBJC_SELECTOR_REFERENCES_.42:
	.quad	L_OBJC_METH_VAR_NAME_.41

	.private_extern	_OBJC_IVAR_$_OSXHandmadeController._dpadX ## @"OBJC_IVAR_$_OSXHandmadeController._dpadX"
	.section	__DATA,__objc_ivar
	.globl	_OBJC_IVAR_$_OSXHandmadeController._dpadX
	.p2align	3
_OBJC_IVAR_$_OSXHandmadeController._dpadX:
	.quad	96                      ## 0x60

	.private_extern	_OBJC_IVAR_$_OSXHandmadeController._dpadY ## @"OBJC_IVAR_$_OSXHandmadeController._dpadY"
	.globl	_OBJC_IVAR_$_OSXHandmadeController._dpadY
	.p2align	3
_OBJC_IVAR_$_OSXHandmadeController._dpadY:
	.quad	104                     ## 0x68

	.private_extern	_OBJC_IVAR_$_OSXHandmadeController._buttonAState ## @"OBJC_IVAR_$_OSXHandmadeController._buttonAState"
	.globl	_OBJC_IVAR_$_OSXHandmadeController._buttonAState
	.p2align	3
_OBJC_IVAR_$_OSXHandmadeController._buttonAState:
	.quad	88                      ## 0x58

	.private_extern	_OBJC_IVAR_$_OSXHandmadeController._buttonBState ## @"OBJC_IVAR_$_OSXHandmadeController._buttonBState"
	.globl	_OBJC_IVAR_$_OSXHandmadeController._buttonBState
	.p2align	3
_OBJC_IVAR_$_OSXHandmadeController._buttonBState:
	.quad	89                      ## 0x59

	.private_extern	_OBJC_IVAR_$_OSXHandmadeController._buttonXState ## @"OBJC_IVAR_$_OSXHandmadeController._buttonXState"
	.globl	_OBJC_IVAR_$_OSXHandmadeController._buttonXState
	.p2align	3
_OBJC_IVAR_$_OSXHandmadeController._buttonXState:
	.quad	90                      ## 0x5a

	.private_extern	_OBJC_IVAR_$_OSXHandmadeController._buttonYState ## @"OBJC_IVAR_$_OSXHandmadeController._buttonYState"
	.globl	_OBJC_IVAR_$_OSXHandmadeController._buttonYState
	.p2align	3
_OBJC_IVAR_$_OSXHandmadeController._buttonYState:
	.quad	91                      ## 0x5b

	.private_extern	_OBJC_IVAR_$_OSXHandmadeController._buttonLeftShoulderState ## @"OBJC_IVAR_$_OSXHandmadeController._buttonLeftShoulderState"
	.globl	_OBJC_IVAR_$_OSXHandmadeController._buttonLeftShoulderState
	.p2align	3
_OBJC_IVAR_$_OSXHandmadeController._buttonLeftShoulderState:
	.quad	92                      ## 0x5c

	.private_extern	_OBJC_IVAR_$_OSXHandmadeController._buttonRightShoulderState ## @"OBJC_IVAR_$_OSXHandmadeController._buttonRightShoulderState"
	.globl	_OBJC_IVAR_$_OSXHandmadeController._buttonRightShoulderState
	.p2align	3
_OBJC_IVAR_$_OSXHandmadeController._buttonRightShoulderState:
	.quad	93                      ## 0x5d

	.section	__TEXT,__objc_classname,cstring_literals
L_OBJC_CLASS_NAME_:                     ## @OBJC_CLASS_NAME_
	.asciz	"OSXHandmadeController"

	.section	__TEXT,__objc_methname,cstring_literals
L_OBJC_METH_VAR_NAME_.43:               ## @OBJC_METH_VAR_NAME_.43
	.asciz	"initialize"

	.section	__TEXT,__objc_methtype,cstring_literals
L_OBJC_METH_VAR_TYPE_:                  ## @OBJC_METH_VAR_TYPE_
	.asciz	"v16@0:8"

	.section	__TEXT,__objc_methname,cstring_literals
L_OBJC_METH_VAR_NAME_.44:               ## @OBJC_METH_VAR_NAME_.44
	.asciz	"setControllerInputSource:"

	.section	__TEXT,__objc_methtype,cstring_literals
L_OBJC_METH_VAR_TYPE_.45:               ## @OBJC_METH_VAR_TYPE_.45
	.asciz	"v24@0:8q16"

	.section	__TEXT,__objc_methname,cstring_literals
L_OBJC_METH_VAR_NAME_.46:               ## @OBJC_METH_VAR_NAME_.46
	.asciz	"selectedController"

	.section	__TEXT,__objc_methtype,cstring_literals
L_OBJC_METH_VAR_TYPE_.47:               ## @OBJC_METH_VAR_TYPE_.47
	.asciz	"@16@0:8"

	.section	__TEXT,__objc_methname,cstring_literals
L_OBJC_METH_VAR_NAME_.48:               ## @OBJC_METH_VAR_NAME_.48
	.asciz	"updateKeyboardControllerWith:"

	.section	__TEXT,__objc_methtype,cstring_literals
L_OBJC_METH_VAR_TYPE_.49:               ## @OBJC_METH_VAR_TYPE_.49
	.asciz	"v24@0:8@16"

	.section	__DATA,__objc_const
	.p2align	3               ## @"\01l_OBJC_$_CLASS_METHODS_OSXHandmadeController"
l_OBJC_$_CLASS_METHODS_OSXHandmadeController:
	.long	24                      ## 0x18
	.long	4                       ## 0x4
	.quad	L_OBJC_METH_VAR_NAME_.43
	.quad	L_OBJC_METH_VAR_TYPE_
	.quad	"+[OSXHandmadeController initialize]"
	.quad	L_OBJC_METH_VAR_NAME_.44
	.quad	L_OBJC_METH_VAR_TYPE_.45
	.quad	"+[OSXHandmadeController setControllerInputSource:]"
	.quad	L_OBJC_METH_VAR_NAME_.46
	.quad	L_OBJC_METH_VAR_TYPE_.47
	.quad	"+[OSXHandmadeController selectedController]"
	.quad	L_OBJC_METH_VAR_NAME_.48
	.quad	L_OBJC_METH_VAR_TYPE_.49
	.quad	"+[OSXHandmadeController updateKeyboardControllerWith:]"

	.p2align	3               ## @"\01l_OBJC_METACLASS_RO_$_OSXHandmadeController"
l_OBJC_METACLASS_RO_$_OSXHandmadeController:
	.long	1                       ## 0x1
	.long	40                      ## 0x28
	.long	40                      ## 0x28
	.space	4
	.quad	0
	.quad	L_OBJC_CLASS_NAME_
	.quad	l_OBJC_$_CLASS_METHODS_OSXHandmadeController
	.quad	0
	.quad	0
	.quad	0
	.quad	0

	.section	__DATA,__objc_data
	.globl	_OBJC_METACLASS_$_OSXHandmadeController ## @"OBJC_METACLASS_$_OSXHandmadeController"
	.p2align	3
_OBJC_METACLASS_$_OSXHandmadeController:
	.quad	_OBJC_METACLASS_$_NSObject
	.quad	_OBJC_METACLASS_$_NSObject
	.quad	__objc_empty_cache
	.quad	0
	.quad	l_OBJC_METACLASS_RO_$_OSXHandmadeController

	.section	__TEXT,__objc_methtype,cstring_literals
L_OBJC_METH_VAR_TYPE_.50:               ## @OBJC_METH_VAR_TYPE_.50
	.asciz	"q16@0:8"

	.section	__TEXT,__objc_methname,cstring_literals
L_OBJC_METH_VAR_NAME_.51:               ## @OBJC_METH_VAR_NAME_.51
	.asciz	"buttonAState"

	.section	__TEXT,__objc_methtype,cstring_literals
L_OBJC_METH_VAR_TYPE_.52:               ## @OBJC_METH_VAR_TYPE_.52
	.asciz	"c16@0:8"

L_OBJC_METH_VAR_TYPE_.53:               ## @OBJC_METH_VAR_TYPE_.53
	.asciz	"v20@0:8c16"

	.section	__TEXT,__objc_methname,cstring_literals
L_OBJC_METH_VAR_NAME_.54:               ## @OBJC_METH_VAR_NAME_.54
	.asciz	"buttonBState"

L_OBJC_METH_VAR_NAME_.55:               ## @OBJC_METH_VAR_NAME_.55
	.asciz	"buttonXState"

L_OBJC_METH_VAR_NAME_.56:               ## @OBJC_METH_VAR_NAME_.56
	.asciz	"buttonYState"

L_OBJC_METH_VAR_NAME_.57:               ## @OBJC_METH_VAR_NAME_.57
	.asciz	"buttonLeftShoulderState"

L_OBJC_METH_VAR_NAME_.58:               ## @OBJC_METH_VAR_NAME_.58
	.asciz	"buttonRightShoulderState"

	.section	__DATA,__objc_const
	.p2align	3               ## @"\01l_OBJC_$_INSTANCE_METHODS_OSXHandmadeController"
l_OBJC_$_INSTANCE_METHODS_OSXHandmadeController:
	.long	24                      ## 0x18
	.long	16                      ## 0x10
	.quad	L_OBJC_METH_VAR_NAME_.23
	.quad	L_OBJC_METH_VAR_TYPE_.50
	.quad	"-[OSXHandmadeController dpadX]"
	.quad	L_OBJC_METH_VAR_NAME_.25
	.quad	L_OBJC_METH_VAR_TYPE_.45
	.quad	"-[OSXHandmadeController setDpadX:]"
	.quad	L_OBJC_METH_VAR_NAME_.27
	.quad	L_OBJC_METH_VAR_TYPE_.50
	.quad	"-[OSXHandmadeController dpadY]"
	.quad	L_OBJC_METH_VAR_NAME_.29
	.quad	L_OBJC_METH_VAR_TYPE_.45
	.quad	"-[OSXHandmadeController setDpadY:]"
	.quad	L_OBJC_METH_VAR_NAME_.51
	.quad	L_OBJC_METH_VAR_TYPE_.52
	.quad	"-[OSXHandmadeController buttonAState]"
	.quad	L_OBJC_METH_VAR_NAME_.31
	.quad	L_OBJC_METH_VAR_TYPE_.53
	.quad	"-[OSXHandmadeController setButtonAState:]"
	.quad	L_OBJC_METH_VAR_NAME_.54
	.quad	L_OBJC_METH_VAR_TYPE_.52
	.quad	"-[OSXHandmadeController buttonBState]"
	.quad	L_OBJC_METH_VAR_NAME_.33
	.quad	L_OBJC_METH_VAR_TYPE_.53
	.quad	"-[OSXHandmadeController setButtonBState:]"
	.quad	L_OBJC_METH_VAR_NAME_.55
	.quad	L_OBJC_METH_VAR_TYPE_.52
	.quad	"-[OSXHandmadeController buttonXState]"
	.quad	L_OBJC_METH_VAR_NAME_.35
	.quad	L_OBJC_METH_VAR_TYPE_.53
	.quad	"-[OSXHandmadeController setButtonXState:]"
	.quad	L_OBJC_METH_VAR_NAME_.56
	.quad	L_OBJC_METH_VAR_TYPE_.52
	.quad	"-[OSXHandmadeController buttonYState]"
	.quad	L_OBJC_METH_VAR_NAME_.37
	.quad	L_OBJC_METH_VAR_TYPE_.53
	.quad	"-[OSXHandmadeController setButtonYState:]"
	.quad	L_OBJC_METH_VAR_NAME_.57
	.quad	L_OBJC_METH_VAR_TYPE_.52
	.quad	"-[OSXHandmadeController buttonLeftShoulderState]"
	.quad	L_OBJC_METH_VAR_NAME_.39
	.quad	L_OBJC_METH_VAR_TYPE_.53
	.quad	"-[OSXHandmadeController setButtonLeftShoulderState:]"
	.quad	L_OBJC_METH_VAR_NAME_.58
	.quad	L_OBJC_METH_VAR_TYPE_.52
	.quad	"-[OSXHandmadeController buttonRightShoulderState]"
	.quad	L_OBJC_METH_VAR_NAME_.41
	.quad	L_OBJC_METH_VAR_TYPE_.53
	.quad	"-[OSXHandmadeController setButtonRightShoulderState:]"

	.private_extern	_OBJC_IVAR_$_OSXHandmadeController._dpadLUsageID ## @"OBJC_IVAR_$_OSXHandmadeController._dpadLUsageID"
	.section	__DATA,__objc_ivar
	.globl	_OBJC_IVAR_$_OSXHandmadeController._dpadLUsageID
	.p2align	3
_OBJC_IVAR_$_OSXHandmadeController._dpadLUsageID:
	.quad	8                       ## 0x8

	.section	__TEXT,__objc_methname,cstring_literals
L_OBJC_METH_VAR_NAME_.59:               ## @OBJC_METH_VAR_NAME_.59
	.asciz	"_dpadLUsageID"

	.section	__TEXT,__objc_methtype,cstring_literals
L_OBJC_METH_VAR_TYPE_.60:               ## @OBJC_METH_VAR_TYPE_.60
	.asciz	"q"

	.private_extern	_OBJC_IVAR_$_OSXHandmadeController._dpadRUsageID ## @"OBJC_IVAR_$_OSXHandmadeController._dpadRUsageID"
	.section	__DATA,__objc_ivar
	.globl	_OBJC_IVAR_$_OSXHandmadeController._dpadRUsageID
	.p2align	3
_OBJC_IVAR_$_OSXHandmadeController._dpadRUsageID:
	.quad	16                      ## 0x10

	.section	__TEXT,__objc_methname,cstring_literals
L_OBJC_METH_VAR_NAME_.61:               ## @OBJC_METH_VAR_NAME_.61
	.asciz	"_dpadRUsageID"

	.private_extern	_OBJC_IVAR_$_OSXHandmadeController._dpadDUsageID ## @"OBJC_IVAR_$_OSXHandmadeController._dpadDUsageID"
	.section	__DATA,__objc_ivar
	.globl	_OBJC_IVAR_$_OSXHandmadeController._dpadDUsageID
	.p2align	3
_OBJC_IVAR_$_OSXHandmadeController._dpadDUsageID:
	.quad	24                      ## 0x18

	.section	__TEXT,__objc_methname,cstring_literals
L_OBJC_METH_VAR_NAME_.62:               ## @OBJC_METH_VAR_NAME_.62
	.asciz	"_dpadDUsageID"

	.private_extern	_OBJC_IVAR_$_OSXHandmadeController._dpadUUsageID ## @"OBJC_IVAR_$_OSXHandmadeController._dpadUUsageID"
	.section	__DATA,__objc_ivar
	.globl	_OBJC_IVAR_$_OSXHandmadeController._dpadUUsageID
	.p2align	3
_OBJC_IVAR_$_OSXHandmadeController._dpadUUsageID:
	.quad	32                      ## 0x20

	.section	__TEXT,__objc_methname,cstring_literals
L_OBJC_METH_VAR_NAME_.63:               ## @OBJC_METH_VAR_NAME_.63
	.asciz	"_dpadUUsageID"

	.private_extern	_OBJC_IVAR_$_OSXHandmadeController._buttonAUsageID ## @"OBJC_IVAR_$_OSXHandmadeController._buttonAUsageID"
	.section	__DATA,__objc_ivar
	.globl	_OBJC_IVAR_$_OSXHandmadeController._buttonAUsageID
	.p2align	3
_OBJC_IVAR_$_OSXHandmadeController._buttonAUsageID:
	.quad	40                      ## 0x28

	.section	__TEXT,__objc_methname,cstring_literals
L_OBJC_METH_VAR_NAME_.64:               ## @OBJC_METH_VAR_NAME_.64
	.asciz	"_buttonAUsageID"

	.private_extern	_OBJC_IVAR_$_OSXHandmadeController._buttonBUsageID ## @"OBJC_IVAR_$_OSXHandmadeController._buttonBUsageID"
	.section	__DATA,__objc_ivar
	.globl	_OBJC_IVAR_$_OSXHandmadeController._buttonBUsageID
	.p2align	3
_OBJC_IVAR_$_OSXHandmadeController._buttonBUsageID:
	.quad	48                      ## 0x30

	.section	__TEXT,__objc_methname,cstring_literals
L_OBJC_METH_VAR_NAME_.65:               ## @OBJC_METH_VAR_NAME_.65
	.asciz	"_buttonBUsageID"

	.private_extern	_OBJC_IVAR_$_OSXHandmadeController._buttonXUsageID ## @"OBJC_IVAR_$_OSXHandmadeController._buttonXUsageID"
	.section	__DATA,__objc_ivar
	.globl	_OBJC_IVAR_$_OSXHandmadeController._buttonXUsageID
	.p2align	3
_OBJC_IVAR_$_OSXHandmadeController._buttonXUsageID:
	.quad	56                      ## 0x38

	.section	__TEXT,__objc_methname,cstring_literals
L_OBJC_METH_VAR_NAME_.66:               ## @OBJC_METH_VAR_NAME_.66
	.asciz	"_buttonXUsageID"

	.private_extern	_OBJC_IVAR_$_OSXHandmadeController._buttonYUsageID ## @"OBJC_IVAR_$_OSXHandmadeController._buttonYUsageID"
	.section	__DATA,__objc_ivar
	.globl	_OBJC_IVAR_$_OSXHandmadeController._buttonYUsageID
	.p2align	3
_OBJC_IVAR_$_OSXHandmadeController._buttonYUsageID:
	.quad	64                      ## 0x40

	.section	__TEXT,__objc_methname,cstring_literals
L_OBJC_METH_VAR_NAME_.67:               ## @OBJC_METH_VAR_NAME_.67
	.asciz	"_buttonYUsageID"

	.private_extern	_OBJC_IVAR_$_OSXHandmadeController._lShoulderUsageID ## @"OBJC_IVAR_$_OSXHandmadeController._lShoulderUsageID"
	.section	__DATA,__objc_ivar
	.globl	_OBJC_IVAR_$_OSXHandmadeController._lShoulderUsageID
	.p2align	3
_OBJC_IVAR_$_OSXHandmadeController._lShoulderUsageID:
	.quad	72                      ## 0x48

	.section	__TEXT,__objc_methname,cstring_literals
L_OBJC_METH_VAR_NAME_.68:               ## @OBJC_METH_VAR_NAME_.68
	.asciz	"_lShoulderUsageID"

	.private_extern	_OBJC_IVAR_$_OSXHandmadeController._rShoulderUsageID ## @"OBJC_IVAR_$_OSXHandmadeController._rShoulderUsageID"
	.section	__DATA,__objc_ivar
	.globl	_OBJC_IVAR_$_OSXHandmadeController._rShoulderUsageID
	.p2align	3
_OBJC_IVAR_$_OSXHandmadeController._rShoulderUsageID:
	.quad	80                      ## 0x50

	.section	__TEXT,__objc_methname,cstring_literals
L_OBJC_METH_VAR_NAME_.69:               ## @OBJC_METH_VAR_NAME_.69
	.asciz	"_rShoulderUsageID"

L_OBJC_METH_VAR_NAME_.70:               ## @OBJC_METH_VAR_NAME_.70
	.asciz	"_buttonAState"

	.section	__TEXT,__objc_methtype,cstring_literals
L_OBJC_METH_VAR_TYPE_.71:               ## @OBJC_METH_VAR_TYPE_.71
	.asciz	"c"

	.section	__TEXT,__objc_methname,cstring_literals
L_OBJC_METH_VAR_NAME_.72:               ## @OBJC_METH_VAR_NAME_.72
	.asciz	"_buttonBState"

L_OBJC_METH_VAR_NAME_.73:               ## @OBJC_METH_VAR_NAME_.73
	.asciz	"_buttonXState"

L_OBJC_METH_VAR_NAME_.74:               ## @OBJC_METH_VAR_NAME_.74
	.asciz	"_buttonYState"

L_OBJC_METH_VAR_NAME_.75:               ## @OBJC_METH_VAR_NAME_.75
	.asciz	"_buttonLeftShoulderState"

L_OBJC_METH_VAR_NAME_.76:               ## @OBJC_METH_VAR_NAME_.76
	.asciz	"_buttonRightShoulderState"

L_OBJC_METH_VAR_NAME_.77:               ## @OBJC_METH_VAR_NAME_.77
	.asciz	"_dpadX"

L_OBJC_METH_VAR_NAME_.78:               ## @OBJC_METH_VAR_NAME_.78
	.asciz	"_dpadY"

	.section	__DATA,__objc_const
	.p2align	3               ## @"\01l_OBJC_$_INSTANCE_VARIABLES_OSXHandmadeController"
l_OBJC_$_INSTANCE_VARIABLES_OSXHandmadeController:
	.long	32                      ## 0x20
	.long	18                      ## 0x12
	.quad	_OBJC_IVAR_$_OSXHandmadeController._dpadLUsageID
	.quad	L_OBJC_METH_VAR_NAME_.59
	.quad	L_OBJC_METH_VAR_TYPE_.60
	.long	3                       ## 0x3
	.long	8                       ## 0x8
	.quad	_OBJC_IVAR_$_OSXHandmadeController._dpadRUsageID
	.quad	L_OBJC_METH_VAR_NAME_.61
	.quad	L_OBJC_METH_VAR_TYPE_.60
	.long	3                       ## 0x3
	.long	8                       ## 0x8
	.quad	_OBJC_IVAR_$_OSXHandmadeController._dpadDUsageID
	.quad	L_OBJC_METH_VAR_NAME_.62
	.quad	L_OBJC_METH_VAR_TYPE_.60
	.long	3                       ## 0x3
	.long	8                       ## 0x8
	.quad	_OBJC_IVAR_$_OSXHandmadeController._dpadUUsageID
	.quad	L_OBJC_METH_VAR_NAME_.63
	.quad	L_OBJC_METH_VAR_TYPE_.60
	.long	3                       ## 0x3
	.long	8                       ## 0x8
	.quad	_OBJC_IVAR_$_OSXHandmadeController._buttonAUsageID
	.quad	L_OBJC_METH_VAR_NAME_.64
	.quad	L_OBJC_METH_VAR_TYPE_.60
	.long	3                       ## 0x3
	.long	8                       ## 0x8
	.quad	_OBJC_IVAR_$_OSXHandmadeController._buttonBUsageID
	.quad	L_OBJC_METH_VAR_NAME_.65
	.quad	L_OBJC_METH_VAR_TYPE_.60
	.long	3                       ## 0x3
	.long	8                       ## 0x8
	.quad	_OBJC_IVAR_$_OSXHandmadeController._buttonXUsageID
	.quad	L_OBJC_METH_VAR_NAME_.66
	.quad	L_OBJC_METH_VAR_TYPE_.60
	.long	3                       ## 0x3
	.long	8                       ## 0x8
	.quad	_OBJC_IVAR_$_OSXHandmadeController._buttonYUsageID
	.quad	L_OBJC_METH_VAR_NAME_.67
	.quad	L_OBJC_METH_VAR_TYPE_.60
	.long	3                       ## 0x3
	.long	8                       ## 0x8
	.quad	_OBJC_IVAR_$_OSXHandmadeController._lShoulderUsageID
	.quad	L_OBJC_METH_VAR_NAME_.68
	.quad	L_OBJC_METH_VAR_TYPE_.60
	.long	3                       ## 0x3
	.long	8                       ## 0x8
	.quad	_OBJC_IVAR_$_OSXHandmadeController._rShoulderUsageID
	.quad	L_OBJC_METH_VAR_NAME_.69
	.quad	L_OBJC_METH_VAR_TYPE_.60
	.long	3                       ## 0x3
	.long	8                       ## 0x8
	.quad	_OBJC_IVAR_$_OSXHandmadeController._buttonAState
	.quad	L_OBJC_METH_VAR_NAME_.70
	.quad	L_OBJC_METH_VAR_TYPE_.71
	.long	0                       ## 0x0
	.long	1                       ## 0x1
	.quad	_OBJC_IVAR_$_OSXHandmadeController._buttonBState
	.quad	L_OBJC_METH_VAR_NAME_.72
	.quad	L_OBJC_METH_VAR_TYPE_.71
	.long	0                       ## 0x0
	.long	1                       ## 0x1
	.quad	_OBJC_IVAR_$_OSXHandmadeController._buttonXState
	.quad	L_OBJC_METH_VAR_NAME_.73
	.quad	L_OBJC_METH_VAR_TYPE_.71
	.long	0                       ## 0x0
	.long	1                       ## 0x1
	.quad	_OBJC_IVAR_$_OSXHandmadeController._buttonYState
	.quad	L_OBJC_METH_VAR_NAME_.74
	.quad	L_OBJC_METH_VAR_TYPE_.71
	.long	0                       ## 0x0
	.long	1                       ## 0x1
	.quad	_OBJC_IVAR_$_OSXHandmadeController._buttonLeftShoulderState
	.quad	L_OBJC_METH_VAR_NAME_.75
	.quad	L_OBJC_METH_VAR_TYPE_.71
	.long	0                       ## 0x0
	.long	1                       ## 0x1
	.quad	_OBJC_IVAR_$_OSXHandmadeController._buttonRightShoulderState
	.quad	L_OBJC_METH_VAR_NAME_.76
	.quad	L_OBJC_METH_VAR_TYPE_.71
	.long	0                       ## 0x0
	.long	1                       ## 0x1
	.quad	_OBJC_IVAR_$_OSXHandmadeController._dpadX
	.quad	L_OBJC_METH_VAR_NAME_.77
	.quad	L_OBJC_METH_VAR_TYPE_.60
	.long	3                       ## 0x3
	.long	8                       ## 0x8
	.quad	_OBJC_IVAR_$_OSXHandmadeController._dpadY
	.quad	L_OBJC_METH_VAR_NAME_.78
	.quad	L_OBJC_METH_VAR_TYPE_.60
	.long	3                       ## 0x3
	.long	8                       ## 0x8

	.section	__TEXT,__cstring,cstring_literals
L_OBJC_PROP_NAME_ATTR_:                 ## @OBJC_PROP_NAME_ATTR_
	.asciz	"dpadX"

L_OBJC_PROP_NAME_ATTR_.79:              ## @OBJC_PROP_NAME_ATTR_.79
	.asciz	"Tq,V_dpadX"

L_OBJC_PROP_NAME_ATTR_.80:              ## @OBJC_PROP_NAME_ATTR_.80
	.asciz	"dpadY"

L_OBJC_PROP_NAME_ATTR_.81:              ## @OBJC_PROP_NAME_ATTR_.81
	.asciz	"Tq,V_dpadY"

L_OBJC_PROP_NAME_ATTR_.82:              ## @OBJC_PROP_NAME_ATTR_.82
	.asciz	"buttonAState"

L_OBJC_PROP_NAME_ATTR_.83:              ## @OBJC_PROP_NAME_ATTR_.83
	.asciz	"Tc,V_buttonAState"

L_OBJC_PROP_NAME_ATTR_.84:              ## @OBJC_PROP_NAME_ATTR_.84
	.asciz	"buttonBState"

L_OBJC_PROP_NAME_ATTR_.85:              ## @OBJC_PROP_NAME_ATTR_.85
	.asciz	"Tc,V_buttonBState"

L_OBJC_PROP_NAME_ATTR_.86:              ## @OBJC_PROP_NAME_ATTR_.86
	.asciz	"buttonXState"

L_OBJC_PROP_NAME_ATTR_.87:              ## @OBJC_PROP_NAME_ATTR_.87
	.asciz	"Tc,V_buttonXState"

L_OBJC_PROP_NAME_ATTR_.88:              ## @OBJC_PROP_NAME_ATTR_.88
	.asciz	"buttonYState"

L_OBJC_PROP_NAME_ATTR_.89:              ## @OBJC_PROP_NAME_ATTR_.89
	.asciz	"Tc,V_buttonYState"

L_OBJC_PROP_NAME_ATTR_.90:              ## @OBJC_PROP_NAME_ATTR_.90
	.asciz	"buttonLeftShoulderState"

L_OBJC_PROP_NAME_ATTR_.91:              ## @OBJC_PROP_NAME_ATTR_.91
	.asciz	"Tc,V_buttonLeftShoulderState"

L_OBJC_PROP_NAME_ATTR_.92:              ## @OBJC_PROP_NAME_ATTR_.92
	.asciz	"buttonRightShoulderState"

L_OBJC_PROP_NAME_ATTR_.93:              ## @OBJC_PROP_NAME_ATTR_.93
	.asciz	"Tc,V_buttonRightShoulderState"

	.section	__DATA,__objc_const
	.p2align	3               ## @"\01l_OBJC_$_PROP_LIST_OSXHandmadeController"
l_OBJC_$_PROP_LIST_OSXHandmadeController:
	.long	16                      ## 0x10
	.long	8                       ## 0x8
	.quad	L_OBJC_PROP_NAME_ATTR_
	.quad	L_OBJC_PROP_NAME_ATTR_.79
	.quad	L_OBJC_PROP_NAME_ATTR_.80
	.quad	L_OBJC_PROP_NAME_ATTR_.81
	.quad	L_OBJC_PROP_NAME_ATTR_.82
	.quad	L_OBJC_PROP_NAME_ATTR_.83
	.quad	L_OBJC_PROP_NAME_ATTR_.84
	.quad	L_OBJC_PROP_NAME_ATTR_.85
	.quad	L_OBJC_PROP_NAME_ATTR_.86
	.quad	L_OBJC_PROP_NAME_ATTR_.87
	.quad	L_OBJC_PROP_NAME_ATTR_.88
	.quad	L_OBJC_PROP_NAME_ATTR_.89
	.quad	L_OBJC_PROP_NAME_ATTR_.90
	.quad	L_OBJC_PROP_NAME_ATTR_.91
	.quad	L_OBJC_PROP_NAME_ATTR_.92
	.quad	L_OBJC_PROP_NAME_ATTR_.93

	.p2align	3               ## @"\01l_OBJC_CLASS_RO_$_OSXHandmadeController"
l_OBJC_CLASS_RO_$_OSXHandmadeController:
	.long	0                       ## 0x0
	.long	8                       ## 0x8
	.long	112                     ## 0x70
	.space	4
	.quad	0
	.quad	L_OBJC_CLASS_NAME_
	.quad	l_OBJC_$_INSTANCE_METHODS_OSXHandmadeController
	.quad	0
	.quad	l_OBJC_$_INSTANCE_VARIABLES_OSXHandmadeController
	.quad	0
	.quad	l_OBJC_$_PROP_LIST_OSXHandmadeController

	.section	__TEXT,__cstring,cstring_literals
L_.str.94:                              ## @.str.94
	.asciz	"VendorID"

	.section	__DATA,__cfstring
	.p2align	3               ## @_unnamed_cfstring_.95
L__unnamed_cfstring_.95:
	.quad	___CFConstantStringClassReference
	.long	1992                    ## 0x7c8
	.space	4
	.quad	L_.str.94
	.quad	8                       ## 0x8

	.section	__TEXT,__objc_methname,cstring_literals
L_OBJC_METH_VAR_NAME_.96:               ## @OBJC_METH_VAR_NAME_.96
	.asciz	"unsignedIntegerValue"

	.section	__DATA,__objc_selrefs,literal_pointers,no_dead_strip
	.p2align	3               ## @OBJC_SELECTOR_REFERENCES_.97
L_OBJC_SELECTOR_REFERENCES_.97:
	.quad	L_OBJC_METH_VAR_NAME_.96

	.section	__TEXT,__cstring,cstring_literals
L_.str.98:                              ## @.str.98
	.asciz	"ProductID"

	.section	__DATA,__cfstring
	.p2align	3               ## @_unnamed_cfstring_.99
L__unnamed_cfstring_.99:
	.quad	___CFConstantStringClassReference
	.long	1992                    ## 0x7c8
	.space	4
	.quad	L_.str.98
	.quad	9                       ## 0x9

	.section	__TEXT,__cstring,cstring_literals
L_.str.100:                             ## @.str.100
	.asciz	"Sony Dualshock 4 detected."

	.section	__DATA,__cfstring
	.p2align	3               ## @_unnamed_cfstring_.101
L__unnamed_cfstring_.101:
	.quad	___CFConstantStringClassReference
	.long	1992                    ## 0x7c8
	.space	4
	.quad	L_.str.100
	.quad	26                      ## 0x1a

	.section	__TEXT,__cstring,cstring_literals
L_.str.102:                             ## @.str.102
	.asciz	"UsagePage"

	.section	__DATA,__objc_classlist,regular,no_dead_strip
	.p2align	3               ## @"OBJC_LABEL_CLASS_$"
L_OBJC_LABEL_CLASS_$:
	.quad	_OBJC_CLASS_$_OSXHandmadeController

	.section	__DATA,__objc_imageinfo,regular,no_dead_strip
L_OBJC_IMAGE_INFO:
	.long	0
	.long	64

	.file	37 "/Users/theodorebendixson1/AppDevelopment/Personal Projects/Handmade Game Tutorials OSX/Day7/build" "/Applications/Xcode.app/Contents/Developer/Platforms/MacOSX.platform/Developer/SDKs/MacOSX10.14.sdk/usr/include/mach/i386/kern_return.h"
	.file	38 "/Users/theodorebendixson1/AppDevelopment/Personal Projects/Handmade Game Tutorials OSX/Day7/build" "/Applications/Xcode.app/Contents/Developer/Platforms/MacOSX.platform/Developer/SDKs/MacOSX10.14.sdk/System/Library/Frameworks/IOKit.framework/Headers/IOReturn.h"
	.file	39 "/Users/theodorebendixson1/AppDevelopment/Personal Projects/Handmade Game Tutorials OSX/Day7/build" "/Applications/Xcode.app/Contents/Developer/Platforms/MacOSX.platform/Developer/SDKs/MacOSX10.14.sdk/System/Library/Frameworks/IOKit.framework/Headers/hid/IOHIDBase.h"
	.file	40 "/Users/theodorebendixson1/AppDevelopment/Personal Projects/Handmade Game Tutorials OSX/Day7/build" "/Applications/Xcode.app/Contents/Developer/Platforms/MacOSX.platform/Developer/SDKs/MacOSX10.14.sdk/System/Library/Frameworks/Foundation.framework/Headers/NSDate.h"
	.file	41 "/Users/theodorebendixson1/AppDevelopment/Personal Projects/Handmade Game Tutorials OSX/Day7/build" "/Applications/Xcode.app/Contents/Developer/Platforms/MacOSX.platform/Developer/SDKs/MacOSX10.14.sdk/System/Library/Frameworks/AppKit.framework/Headers/NSResponder.h"
	.file	42 "/Users/theodorebendixson1/AppDevelopment/Personal Projects/Handmade Game Tutorials OSX/Day7/build" "/Applications/Xcode.app/Contents/Developer/Platforms/MacOSX.platform/Developer/SDKs/MacOSX10.14.sdk/System/Library/Frameworks/AppKit.framework/Headers/NSMenu.h"
	.file	43 "/Users/theodorebendixson1/AppDevelopment/Personal Projects/Handmade Game Tutorials OSX/Day7/build" "/Applications/Xcode.app/Contents/Developer/Platforms/MacOSX.platform/Developer/SDKs/MacOSX10.14.sdk/System/Library/Frameworks/Foundation.framework/Headers/NSArray.h"
	.file	44 "/Users/theodorebendixson1/AppDevelopment/Personal Projects/Handmade Game Tutorials OSX/Day7/build" "/Applications/Xcode.app/Contents/Developer/Platforms/MacOSX.platform/Developer/SDKs/MacOSX10.14.sdk/System/Library/Frameworks/CoreGraphics.framework/Headers/CGBase.h"
	.file	45 "/Users/theodorebendixson1/AppDevelopment/Personal Projects/Handmade Game Tutorials OSX/Day7/build" "/Applications/Xcode.app/Contents/Developer/Platforms/MacOSX.platform/Developer/SDKs/MacOSX10.14.sdk/System/Library/Frameworks/AppKit.framework/Headers/NSMenuItem.h"
	.file	46 "/Users/theodorebendixson1/AppDevelopment/Personal Projects/Handmade Game Tutorials OSX/Day7/build" "/Applications/Xcode.app/Contents/Developer/Platforms/MacOSX.platform/Developer/SDKs/MacOSX10.14.sdk/System/Library/Frameworks/Foundation.framework/Headers/NSAttributedString.h"
	.file	47 "/Users/theodorebendixson1/AppDevelopment/Personal Projects/Handmade Game Tutorials OSX/Day7/build" "/Applications/Xcode.app/Contents/Developer/Platforms/MacOSX.platform/Developer/SDKs/MacOSX10.14.sdk/System/Library/Frameworks/CoreGraphics.framework/Headers/CGGeometry.h"
	.file	48 "/Users/theodorebendixson1/AppDevelopment/Personal Projects/Handmade Game Tutorials OSX/Day7/build" "/Applications/Xcode.app/Contents/Developer/Platforms/MacOSX.platform/Developer/SDKs/MacOSX10.14.sdk/System/Library/Frameworks/Foundation.framework/Headers/NSGeometry.h"
	.file	49 "/Users/theodorebendixson1/AppDevelopment/Personal Projects/Handmade Game Tutorials OSX/Day7/build" "/Applications/Xcode.app/Contents/Developer/Platforms/MacOSX.platform/Developer/SDKs/MacOSX10.14.sdk/System/Library/Frameworks/AppKit.framework/Headers/NSColorList.h"
	.file	50 "/Users/theodorebendixson1/AppDevelopment/Personal Projects/Handmade Game Tutorials OSX/Day7/build" "/Applications/Xcode.app/Contents/Developer/Platforms/MacOSX.platform/Developer/SDKs/MacOSX10.14.sdk/System/Library/Frameworks/Foundation.framework/Headers/NSData.h"
	.file	51 "/Users/theodorebendixson1/AppDevelopment/Personal Projects/Handmade Game Tutorials OSX/Day7/build" "/Applications/Xcode.app/Contents/Developer/Platforms/MacOSX.platform/Developer/SDKs/MacOSX10.14.sdk/System/Library/Frameworks/CoreGraphics.framework/Headers/CGColorSpace.h"
	.file	52 "/Users/theodorebendixson1/AppDevelopment/Personal Projects/Handmade Game Tutorials OSX/Day7/build" "/Applications/Xcode.app/Contents/Developer/Platforms/MacOSX.platform/Developer/SDKs/MacOSX10.14.sdk/System/Library/Frameworks/CoreGraphics.framework/Headers/CGColor.h"
	.file	53 "/Users/theodorebendixson1/AppDevelopment/Personal Projects/Handmade Game Tutorials OSX/Day7/build" "/Applications/Xcode.app/Contents/Developer/Platforms/MacOSX.platform/Developer/SDKs/MacOSX10.14.sdk/System/Library/Frameworks/QuartzCore.framework/Headers/CATransform3D.h"
	.file	54 "/Users/theodorebendixson1/AppDevelopment/Personal Projects/Handmade Game Tutorials OSX/Day7/build" "/Applications/Xcode.app/Contents/Developer/Platforms/MacOSX.platform/Developer/SDKs/MacOSX10.14.sdk/System/Library/Frameworks/CoreGraphics.framework/Headers/CGPath.h"
	.file	55 "/Users/theodorebendixson1/AppDevelopment/Personal Projects/Handmade Game Tutorials OSX/Day7/build" "/Applications/Xcode.app/Contents/Developer/Platforms/MacOSX.platform/Developer/SDKs/MacOSX10.14.sdk/System/Library/Frameworks/Foundation.framework/Headers/NSDictionary.h"
	.file	56 "/Users/theodorebendixson1/AppDevelopment/Personal Projects/Handmade Game Tutorials OSX/Day7/build" "/Applications/Xcode.app/Contents/Developer/Platforms/MacOSX.platform/Developer/SDKs/MacOSX10.14.sdk/System/Library/Frameworks/AppKit.framework/Headers/NSShadow.h"
	.file	57 "/Users/theodorebendixson1/AppDevelopment/Personal Projects/Handmade Game Tutorials OSX/Day7/build" "/Applications/Xcode.app/Contents/Developer/Platforms/MacOSX.platform/Developer/SDKs/MacOSX10.14.sdk/System/Library/Frameworks/AppKit.framework/Headers/NSClipView.h"
	.file	58 "/Users/theodorebendixson1/AppDevelopment/Personal Projects/Handmade Game Tutorials OSX/Day7/build" "/Applications/Xcode.app/Contents/Developer/Platforms/MacOSX.platform/Developer/SDKs/MacOSX10.14.sdk/System/Library/Frameworks/AppKit.framework/Headers/NSCursor.h"
	.file	59 "/Users/theodorebendixson1/AppDevelopment/Personal Projects/Handmade Game Tutorials OSX/Day7/build" "/Applications/Xcode.app/Contents/Developer/Platforms/MacOSX.platform/Developer/SDKs/MacOSX10.14.sdk/System/Library/Frameworks/AppKit.framework/Headers/NSControl.h"
	.file	60 "/Users/theodorebendixson1/AppDevelopment/Personal Projects/Handmade Game Tutorials OSX/Day7/build" "/Applications/Xcode.app/Contents/Developer/Platforms/MacOSX.platform/Developer/SDKs/MacOSX10.14.sdk/System/Library/Frameworks/Foundation.framework/Headers/NSFormatter.h"
	.file	61 "/Users/theodorebendixson1/AppDevelopment/Personal Projects/Handmade Game Tutorials OSX/Day7/build" "/Applications/Xcode.app/Contents/Developer/Platforms/MacOSX.platform/Developer/SDKs/MacOSX10.14.sdk/System/Library/Frameworks/AppKit.framework/Headers/NSRulerMarker.h"
	.file	62 "/Users/theodorebendixson1/AppDevelopment/Personal Projects/Handmade Game Tutorials OSX/Day7/build" "/Applications/Xcode.app/Contents/Developer/Platforms/MacOSX.platform/Developer/SDKs/MacOSX10.14.sdk/System/Library/Frameworks/AppKit.framework/Headers/NSTextInputContext.h"
	.file	63 "/Users/theodorebendixson1/AppDevelopment/Personal Projects/Handmade Game Tutorials OSX/Day7/build" "/Applications/Xcode.app/Contents/Developer/Platforms/MacOSX.platform/Developer/SDKs/MacOSX10.14.sdk/System/Library/Frameworks/AppKit.framework/Headers/NSFont.h"
	.file	64 "/Users/theodorebendixson1/AppDevelopment/Personal Projects/Handmade Game Tutorials OSX/Day7/build" "/Applications/Xcode.app/Contents/Developer/Platforms/MacOSX.platform/Developer/SDKs/MacOSX10.14.sdk/System/Library/Frameworks/Foundation.framework/Headers/NSAffineTransform.h"
	.file	65 "/Users/theodorebendixson1/AppDevelopment/Personal Projects/Handmade Game Tutorials OSX/Day7/build" "/Applications/Xcode.app/Contents/Developer/Platforms/MacOSX.platform/Developer/SDKs/MacOSX10.14.sdk/System/Library/Frameworks/Foundation.framework/Headers/NSCharacterSet.h"
	.file	66 "/Users/theodorebendixson1/AppDevelopment/Personal Projects/Handmade Game Tutorials OSX/Day7/build" "/Applications/Xcode.app/Contents/Developer/Platforms/MacOSX.platform/Developer/SDKs/MacOSX10.14.sdk/System/Library/Frameworks/Foundation.framework/Headers/NSURL.h"
	.file	67 "/Users/theodorebendixson1/AppDevelopment/Personal Projects/Handmade Game Tutorials OSX/Day7/build" "/Applications/Xcode.app/Contents/Developer/Platforms/MacOSX.platform/Developer/SDKs/MacOSX10.14.sdk/System/Library/Frameworks/AppKit.framework/Headers/NSDockTile.h"
	.file	68 "/Users/theodorebendixson1/AppDevelopment/Personal Projects/Handmade Game Tutorials OSX/Day7/build" "/Applications/Xcode.app/Contents/Developer/Platforms/MacOSX.platform/Developer/SDKs/MacOSX10.14.sdk/System/Library/Frameworks/AppKit.framework/Headers/NSScreen.h"
	.file	69 "/Users/theodorebendixson1/AppDevelopment/Personal Projects/Handmade Game Tutorials OSX/Day7/build" "/Applications/Xcode.app/Contents/Developer/Platforms/MacOSX.platform/Developer/SDKs/MacOSX10.14.sdk/System/Library/Frameworks/AppKit.framework/Headers/NSNib.h"
	.file	70 "/Users/theodorebendixson1/AppDevelopment/Personal Projects/Handmade Game Tutorials OSX/Day7/build" "/Applications/Xcode.app/Contents/Developer/Platforms/MacOSX.platform/Developer/SDKs/MacOSX10.14.sdk/System/Library/Frameworks/AppKit.framework/Headers/NSWindowController.h"
	.file	71 "/Users/theodorebendixson1/AppDevelopment/Personal Projects/Handmade Game Tutorials OSX/Day7/build" "/Applications/Xcode.app/Contents/Developer/Platforms/MacOSX.platform/Developer/SDKs/MacOSX10.14.sdk/System/Library/Frameworks/AppKit.framework/Headers/NSViewController.h"
	.file	72 "/Users/theodorebendixson1/AppDevelopment/Personal Projects/Handmade Game Tutorials OSX/Day7/build" "/Applications/Xcode.app/Contents/Developer/Platforms/MacOSX.platform/Developer/SDKs/MacOSX10.14.sdk/System/Library/Frameworks/Foundation.framework/Headers/NSBundle.h"
	.file	73 "/Users/theodorebendixson1/AppDevelopment/Personal Projects/Handmade Game Tutorials OSX/Day7/build" "/Applications/Xcode.app/Contents/Developer/Platforms/MacOSX.platform/Developer/SDKs/MacOSX10.14.sdk/System/Library/Frameworks/Foundation.framework/Headers/NSPointerFunctions.h"
	.file	74 "/Users/theodorebendixson1/AppDevelopment/Personal Projects/Handmade Game Tutorials OSX/Day7/build" "/Applications/Xcode.app/Contents/Developer/Platforms/MacOSX.platform/Developer/SDKs/MacOSX10.14.sdk/System/Library/Frameworks/Foundation.framework/Headers/NSPointerArray.h"
	.file	75 "/Users/theodorebendixson1/AppDevelopment/Personal Projects/Handmade Game Tutorials OSX/Day7/build" "/Applications/Xcode.app/Contents/Developer/Platforms/MacOSX.platform/Developer/SDKs/MacOSX10.14.sdk/System/Library/Frameworks/AppKit.framework/Headers/NSDocument.h"
	.file	76 "/Users/theodorebendixson1/AppDevelopment/Personal Projects/Handmade Game Tutorials OSX/Day7/build" "/Applications/Xcode.app/Contents/Developer/Platforms/MacOSX.platform/Developer/SDKs/MacOSX10.14.sdk/System/Library/Frameworks/AppKit.framework/Headers/NSPrinter.h"
	.file	77 "/Users/theodorebendixson1/AppDevelopment/Personal Projects/Handmade Game Tutorials OSX/Day7/build" "/Applications/Xcode.app/Contents/Developer/Platforms/MacOSX.platform/Developer/SDKs/MacOSX10.14.sdk/System/Library/Frameworks/AppKit.framework/Headers/NSHelpManager.h"
	.file	78 "/Users/theodorebendixson1/AppDevelopment/Personal Projects/Handmade Game Tutorials OSX/Day7/build" "/Applications/Xcode.app/Contents/Developer/Platforms/MacOSX.platform/Developer/SDKs/MacOSX10.14.sdk/System/Library/Frameworks/AppKit.framework/Headers/NSGraphicsContext.h"
	.file	79 "/Users/theodorebendixson1/AppDevelopment/Personal Projects/Handmade Game Tutorials OSX/Day7/build" "/Applications/Xcode.app/Contents/Developer/Platforms/MacOSX.platform/Developer/SDKs/MacOSX10.14.sdk/System/Library/Frameworks/CoreGraphics.framework/Headers/CGContext.h"
	.file	80 "/Users/theodorebendixson1/AppDevelopment/Personal Projects/Handmade Game Tutorials OSX/Day7/build" "/Applications/Xcode.app/Contents/Developer/Platforms/MacOSX.platform/Developer/SDKs/MacOSX10.14.sdk/System/Library/Frameworks/Foundation.framework/Headers/NSRange.h"
	.file	81 "/Users/theodorebendixson1/AppDevelopment/Personal Projects/Handmade Game Tutorials OSX/Day7/build" "/Applications/Xcode.app/Contents/Developer/Platforms/MacOSX.platform/Developer/SDKs/MacOSX10.14.sdk/System/Library/Frameworks/Foundation.framework/Headers/NSUndoManager.h"
	.file	82 "/Users/theodorebendixson1/AppDevelopment/Personal Projects/Handmade Game Tutorials OSX/Day7/build" "/Applications/Xcode.app/Contents/Developer/Platforms/MacOSX.platform/Developer/SDKs/MacOSX10.14.sdk/usr/include/_types/_uint64_t.h"
	.file	83 "/Users/theodorebendixson1/AppDevelopment/Personal Projects/Handmade Game Tutorials OSX/Day7/build" "/Applications/Xcode.app/Contents/Developer/Platforms/MacOSX.platform/Developer/SDKs/MacOSX10.14.sdk/System/Library/Frameworks/AppKit.framework/Headers/NSActionCell.h"
	.file	84 "/Users/theodorebendixson1/AppDevelopment/Personal Projects/Handmade Game Tutorials OSX/Day7/build" "/Applications/Xcode.app/Contents/Developer/Platforms/MacOSX.platform/Developer/SDKs/MacOSX10.14.sdk/System/Library/Frameworks/AppKit.framework/Headers/NSButtonCell.h"
	.file	85 "/Users/theodorebendixson1/AppDevelopment/Personal Projects/Handmade Game Tutorials OSX/Day7/build" "/Applications/Xcode.app/Contents/Developer/Platforms/MacOSX.platform/Developer/SDKs/MacOSX10.14.sdk/System/Library/Frameworks/AppKit.framework/Headers/NSWindowTab.h"
	.file	86 "/Users/theodorebendixson1/AppDevelopment/Personal Projects/Handmade Game Tutorials OSX/Day7/build" "/Applications/Xcode.app/Contents/Developer/Platforms/MacOSX.platform/Developer/SDKs/MacOSX10.14.sdk/System/Library/Frameworks/AppKit.framework/Headers/NSWindowTabGroup.h"
	.file	87 "/Users/theodorebendixson1/AppDevelopment/Personal Projects/Handmade Game Tutorials OSX/Day7/build" "/Applications/Xcode.app/Contents/Developer/Platforms/MacOSX.platform/Developer/SDKs/MacOSX10.14.sdk/System/Library/Frameworks/Foundation.framework/Headers/NSSet.h"
	.file	88 "/Users/theodorebendixson1/AppDevelopment/Personal Projects/Handmade Game Tutorials OSX/Day7/build" "/Applications/Xcode.app/Contents/Developer/Platforms/MacOSX.platform/Developer/SDKs/MacOSX10.14.sdk/System/Library/Frameworks/CoreGraphics.framework/Headers/CGEventTypes.h"
	.file	89 "/Users/theodorebendixson1/AppDevelopment/Personal Projects/Handmade Game Tutorials OSX/Day7/build" "../handmade/code/handmade_types.h"