	.section	__TEXT,__text,regular,pure_instructions
	.build_version macos, 10, 14	sdk_version 10, 14
	.file	1 "/Users/theodorebendixson1/AppDevelopment/Personal Projects/Handmade Game Tutorials OSX/Day7/build" "../handmade/code/osx_handmade_windows.mm"
	.file	2 "/Users/theodorebendixson1/AppDevelopment/Personal Projects/Handmade Game Tutorials OSX/Day7/build" "/Applications/Xcode.app/Contents/Developer/Platforms/MacOSX.platform/Developer/SDKs/MacOSX10.14.sdk/usr/include/objc/NSObject.h"
	.file	3 "/Users/theodorebendixson1/AppDevelopment/Personal Projects/Handmade Game Tutorials OSX/Day7/build" "/Applications/Xcode.app/Contents/Developer/Platforms/MacOSX.platform/Developer/SDKs/MacOSX10.14.sdk/System/Library/Frameworks/AppKit.framework/Headers/NSResponder.h"
	.file	4 "/Users/theodorebendixson1/AppDevelopment/Personal Projects/Handmade Game Tutorials OSX/Day7/build" "/Applications/Xcode.app/Contents/Developer/Platforms/MacOSX.platform/Developer/SDKs/MacOSX10.14.sdk/usr/include/objc/objc.h"
	.file	5 "/Users/theodorebendixson1/AppDevelopment/Personal Projects/Handmade Game Tutorials OSX/Day7/build" "/Applications/Xcode.app/Contents/Developer/Platforms/MacOSX.platform/Developer/SDKs/MacOSX10.14.sdk/usr/include/objc/NSObjCRuntime.h"
	.file	6 "/Users/theodorebendixson1/AppDevelopment/Personal Projects/Handmade Game Tutorials OSX/Day7/build" "/Applications/Xcode.app/Contents/Developer/Platforms/MacOSX.platform/Developer/SDKs/MacOSX10.14.sdk/System/Library/Frameworks/Foundation.framework/Headers/NSString.h"
	.file	7 "/Users/theodorebendixson1/AppDevelopment/Personal Projects/Handmade Game Tutorials OSX/Day7/build" "/Applications/Xcode.app/Contents/Developer/Platforms/MacOSX.platform/Developer/SDKs/MacOSX10.14.sdk/System/Library/Frameworks/AppKit.framework/Headers/NSMenu.h"
	.file	8 "/Users/theodorebendixson1/AppDevelopment/Personal Projects/Handmade Game Tutorials OSX/Day7/build" "/Applications/Xcode.app/Contents/Developer/Platforms/MacOSX.platform/Developer/SDKs/MacOSX10.14.sdk/System/Library/Frameworks/Foundation.framework/Headers/NSArray.h"
	.file	9 "/Users/theodorebendixson1/AppDevelopment/Personal Projects/Handmade Game Tutorials OSX/Day7/build" "/Applications/Xcode.app/Contents/Developer/Platforms/MacOSX.platform/Developer/SDKs/MacOSX10.14.sdk/System/Library/Frameworks/CoreGraphics.framework/Headers/CGBase.h"
	.file	10 "/Users/theodorebendixson1/AppDevelopment/Personal Projects/Handmade Game Tutorials OSX/Day7/build" "/Applications/Xcode.app/Contents/Developer/Platforms/MacOSX.platform/Developer/SDKs/MacOSX10.14.sdk/System/Library/Frameworks/AppKit.framework/Headers/NSMenuItem.h"
	.file	11 "/Users/theodorebendixson1/AppDevelopment/Personal Projects/Handmade Game Tutorials OSX/Day7/build" "/Applications/Xcode.app/Contents/Developer/Platforms/MacOSX.platform/Developer/SDKs/MacOSX10.14.sdk/System/Library/Frameworks/Foundation.framework/Headers/NSAttributedString.h"
	.file	12 "/Users/theodorebendixson1/AppDevelopment/Personal Projects/Handmade Game Tutorials OSX/Day7/build" "/Applications/Xcode.app/Contents/Developer/Platforms/MacOSX.platform/Developer/SDKs/MacOSX10.14.sdk/System/Library/Frameworks/AppKit.framework/Headers/NSEvent.h"
	.file	13 "/Users/theodorebendixson1/AppDevelopment/Personal Projects/Handmade Game Tutorials OSX/Day7/build" "/Applications/Xcode.app/Contents/Developer/Platforms/MacOSX.platform/Developer/SDKs/MacOSX10.14.sdk/System/Library/Frameworks/CoreGraphics.framework/Headers/CGGeometry.h"
	.file	14 "/Users/theodorebendixson1/AppDevelopment/Personal Projects/Handmade Game Tutorials OSX/Day7/build" "/Applications/Xcode.app/Contents/Developer/Platforms/MacOSX.platform/Developer/SDKs/MacOSX10.14.sdk/System/Library/Frameworks/Foundation.framework/Headers/NSGeometry.h"
	.file	15 "/Users/theodorebendixson1/AppDevelopment/Personal Projects/Handmade Game Tutorials OSX/Day7/build" "/Applications/Xcode.app/Contents/Developer/Platforms/MacOSX.platform/Developer/SDKs/MacOSX10.14.sdk/System/Library/Frameworks/AppKit.framework/Headers/NSImage.h"
	.file	16 "/Users/theodorebendixson1/AppDevelopment/Personal Projects/Handmade Game Tutorials OSX/Day7/build" "/Applications/Xcode.app/Contents/Developer/Platforms/MacOSX.platform/Developer/SDKs/MacOSX10.14.sdk/System/Library/Frameworks/AppKit.framework/Headers/NSColor.h"
	.file	17 "/Users/theodorebendixson1/AppDevelopment/Personal Projects/Handmade Game Tutorials OSX/Day7/build" "/Applications/Xcode.app/Contents/Developer/Platforms/MacOSX.platform/Developer/SDKs/MacOSX10.14.sdk/System/Library/Frameworks/AppKit.framework/Headers/NSCell.h"
	.file	18 "/Users/theodorebendixson1/AppDevelopment/Personal Projects/Handmade Game Tutorials OSX/Day7/build" "/Applications/Xcode.app/Contents/Developer/Platforms/MacOSX.platform/Developer/SDKs/MacOSX10.14.sdk/System/Library/Frameworks/AppKit.framework/Headers/NSColorList.h"
	.file	19 "/Users/theodorebendixson1/AppDevelopment/Personal Projects/Handmade Game Tutorials OSX/Day7/build" "/Applications/Xcode.app/Contents/Developer/Platforms/MacOSX.platform/Developer/SDKs/MacOSX10.14.sdk/System/Library/Frameworks/Foundation.framework/Headers/NSData.h"
	.file	20 "/Users/theodorebendixson1/AppDevelopment/Personal Projects/Handmade Game Tutorials OSX/Day7/build" "/Applications/Xcode.app/Contents/Developer/Platforms/MacOSX.platform/Developer/SDKs/MacOSX10.14.sdk/System/Library/Frameworks/AppKit.framework/Headers/NSColorSpace.h"
	.file	21 "/Users/theodorebendixson1/AppDevelopment/Personal Projects/Handmade Game Tutorials OSX/Day7/build" "/Applications/Xcode.app/Contents/Developer/Platforms/MacOSX.platform/Developer/SDKs/MacOSX10.14.sdk/System/Library/Frameworks/CoreGraphics.framework/Headers/CGColorSpace.h"
	.file	22 "/Users/theodorebendixson1/AppDevelopment/Personal Projects/Handmade Game Tutorials OSX/Day7/build" "/Applications/Xcode.app/Contents/Developer/Platforms/MacOSX.platform/Developer/SDKs/MacOSX10.14.sdk/System/Library/Frameworks/CoreGraphics.framework/Headers/CGColor.h"
	.file	23 "/Users/theodorebendixson1/AppDevelopment/Personal Projects/Handmade Game Tutorials OSX/Day7/build" "/Applications/Xcode.app/Contents/Developer/Platforms/MacOSX.platform/Developer/SDKs/MacOSX10.14.sdk/System/Library/Frameworks/AppKit.framework/Headers/NSView.h"
	.file	24 "/Users/theodorebendixson1/AppDevelopment/Personal Projects/Handmade Game Tutorials OSX/Day7/build" "/Applications/Xcode.app/Contents/Developer/Platforms/MacOSX.platform/Developer/SDKs/MacOSX10.14.sdk/System/Library/Frameworks/QuartzCore.framework/Headers/CALayer.h"
	.file	25 "/Users/theodorebendixson1/AppDevelopment/Personal Projects/Handmade Game Tutorials OSX/Day7/build" "/Applications/Xcode.app/Contents/Developer/Platforms/MacOSX.platform/Developer/SDKs/MacOSX10.14.sdk/System/Library/Frameworks/QuartzCore.framework/Headers/CATransform3D.h"
	.file	26 "/Users/theodorebendixson1/AppDevelopment/Personal Projects/Handmade Game Tutorials OSX/Day7/build" "/Applications/Xcode.app/Contents/Developer/Platforms/MacOSX.platform/Developer/SDKs/MacOSX10.14.sdk/System/Library/Frameworks/CoreGraphics.framework/Headers/CGPath.h"
	.file	27 "/Users/theodorebendixson1/AppDevelopment/Personal Projects/Handmade Game Tutorials OSX/Day7/build" "/Applications/Xcode.app/Contents/Developer/Platforms/MacOSX.platform/Developer/SDKs/MacOSX10.14.sdk/System/Library/Frameworks/Foundation.framework/Headers/NSDictionary.h"
	.file	28 "/Users/theodorebendixson1/AppDevelopment/Personal Projects/Handmade Game Tutorials OSX/Day7/build" "/Applications/Xcode.app/Contents/Developer/Platforms/MacOSX.platform/Developer/SDKs/MacOSX10.14.sdk/usr/include/sys/_types/_int32_t.h"
	.file	29 "/Users/theodorebendixson1/AppDevelopment/Personal Projects/Handmade Game Tutorials OSX/Day7/build" "/Applications/Xcode.app/Contents/Developer/Platforms/MacOSX.platform/Developer/SDKs/MacOSX10.14.sdk/usr/include/_types/_uint32_t.h"
	.file	30 "/Users/theodorebendixson1/AppDevelopment/Personal Projects/Handmade Game Tutorials OSX/Day7/build" "/Applications/Xcode.app/Contents/Developer/Platforms/MacOSX.platform/Developer/SDKs/MacOSX10.14.sdk/System/Library/Frameworks/AppKit.framework/Headers/NSShadow.h"
	.file	31 "/Users/theodorebendixson1/AppDevelopment/Personal Projects/Handmade Game Tutorials OSX/Day7/build" "/Applications/Xcode.app/Contents/Developer/Platforms/MacOSX.platform/Developer/SDKs/MacOSX10.14.sdk/System/Library/Frameworks/AppKit.framework/Headers/NSScrollView.h"
	.file	32 "/Users/theodorebendixson1/AppDevelopment/Personal Projects/Handmade Game Tutorials OSX/Day7/build" "/Applications/Xcode.app/Contents/Developer/Platforms/MacOSX.platform/Developer/SDKs/MacOSX10.14.sdk/System/Library/Frameworks/AppKit.framework/Headers/NSClipView.h"
	.file	33 "/Users/theodorebendixson1/AppDevelopment/Personal Projects/Handmade Game Tutorials OSX/Day7/build" "/Applications/Xcode.app/Contents/Developer/Platforms/MacOSX.platform/Developer/SDKs/MacOSX10.14.sdk/System/Library/Frameworks/AppKit.framework/Headers/NSCursor.h"
	.file	34 "/Users/theodorebendixson1/AppDevelopment/Personal Projects/Handmade Game Tutorials OSX/Day7/build" "/Applications/Xcode.app/Contents/Developer/Platforms/MacOSX.platform/Developer/SDKs/MacOSX10.14.sdk/System/Library/Frameworks/AppKit.framework/Headers/NSControl.h"
	.file	35 "/Users/theodorebendixson1/AppDevelopment/Personal Projects/Handmade Game Tutorials OSX/Day7/build" "/Applications/Xcode.app/Contents/Developer/Platforms/MacOSX.platform/Developer/SDKs/MacOSX10.14.sdk/System/Library/Frameworks/Foundation.framework/Headers/NSFormatter.h"
	.file	36 "/Users/theodorebendixson1/AppDevelopment/Personal Projects/Handmade Game Tutorials OSX/Day7/build" "/Applications/Xcode.app/Contents/Developer/Platforms/MacOSX.platform/Developer/SDKs/MacOSX10.14.sdk/System/Library/Frameworks/AppKit.framework/Headers/NSScroller.h"
	.file	37 "/Users/theodorebendixson1/AppDevelopment/Personal Projects/Handmade Game Tutorials OSX/Day7/build" "/Applications/Xcode.app/Contents/Developer/Platforms/MacOSX.platform/Developer/SDKs/MacOSX10.14.sdk/System/Library/Frameworks/AppKit.framework/Headers/NSRulerView.h"
	.file	38 "/Users/theodorebendixson1/AppDevelopment/Personal Projects/Handmade Game Tutorials OSX/Day7/build" "/Applications/Xcode.app/Contents/Developer/Platforms/MacOSX.platform/Developer/SDKs/MacOSX10.14.sdk/System/Library/Frameworks/AppKit.framework/Headers/NSRulerMarker.h"
	.file	39 "/Users/theodorebendixson1/AppDevelopment/Personal Projects/Handmade Game Tutorials OSX/Day7/build" "/Applications/Xcode.app/Contents/Developer/Platforms/MacOSX.platform/Developer/SDKs/MacOSX10.14.sdk/System/Library/Frameworks/AppKit.framework/Headers/NSTextInputContext.h"
	.file	40 "/Users/theodorebendixson1/AppDevelopment/Personal Projects/Handmade Game Tutorials OSX/Day7/build" "/Applications/Xcode.app/Contents/Developer/Platforms/MacOSX.platform/Developer/SDKs/MacOSX10.14.sdk/System/Library/Frameworks/AppKit.framework/Headers/NSUserInterfaceLayout.h"
	.file	41 "/Users/theodorebendixson1/AppDevelopment/Personal Projects/Handmade Game Tutorials OSX/Day7/build" "/Applications/Xcode.app/Contents/Developer/Platforms/MacOSX.platform/Developer/SDKs/MacOSX10.14.sdk/System/Library/Frameworks/AppKit.framework/Headers/NSFont.h"
	.file	42 "/Users/theodorebendixson1/AppDevelopment/Personal Projects/Handmade Game Tutorials OSX/Day7/build" "/Applications/Xcode.app/Contents/Developer/Platforms/MacOSX.platform/Developer/SDKs/MacOSX10.14.sdk/System/Library/Frameworks/AppKit.framework/Headers/NSFontDescriptor.h"
	.file	43 "/Users/theodorebendixson1/AppDevelopment/Personal Projects/Handmade Game Tutorials OSX/Day7/build" "/Applications/Xcode.app/Contents/Developer/Platforms/MacOSX.platform/Developer/SDKs/MacOSX10.14.sdk/System/Library/Frameworks/Foundation.framework/Headers/NSAffineTransform.h"
	.file	44 "/Users/theodorebendixson1/AppDevelopment/Personal Projects/Handmade Game Tutorials OSX/Day7/build" "/Applications/Xcode.app/Contents/Developer/Platforms/MacOSX.platform/Developer/SDKs/MacOSX10.14.sdk/System/Library/Frameworks/Foundation.framework/Headers/NSCharacterSet.h"
	.file	45 "/Users/theodorebendixson1/AppDevelopment/Personal Projects/Handmade Game Tutorials OSX/Day7/build" "/Applications/Xcode.app/Contents/Developer/Platforms/MacOSX.platform/Developer/SDKs/MacOSX10.14.sdk/System/Library/Frameworks/AppKit.framework/Headers/NSGraphics.h"
	.file	46 "/Users/theodorebendixson1/AppDevelopment/Personal Projects/Handmade Game Tutorials OSX/Day7/build" "/Applications/Xcode.app/Contents/Developer/Platforms/MacOSX.platform/Developer/SDKs/MacOSX10.14.sdk/System/Library/Frameworks/AppKit.framework/Headers/NSWindow.h"
	.file	47 "/Users/theodorebendixson1/AppDevelopment/Personal Projects/Handmade Game Tutorials OSX/Day7/build" "/Applications/Xcode.app/Contents/Developer/Platforms/MacOSX.platform/Developer/SDKs/MacOSX10.14.sdk/System/Library/Frameworks/Foundation.framework/Headers/NSURL.h"
	.file	48 "/Users/theodorebendixson1/AppDevelopment/Personal Projects/Handmade Game Tutorials OSX/Day7/build" "/Applications/Xcode.app/Contents/Developer/Platforms/MacOSX.platform/Developer/SDKs/MacOSX10.14.sdk/System/Library/Frameworks/Foundation.framework/Headers/NSValue.h"
	.file	49 "/Users/theodorebendixson1/AppDevelopment/Personal Projects/Handmade Game Tutorials OSX/Day7/build" "/Applications/Xcode.app/Contents/Developer/Platforms/MacOSX.platform/Developer/SDKs/MacOSX10.14.sdk/System/Library/Frameworks/AppKit.framework/Headers/NSDockTile.h"
	.file	50 "/Users/theodorebendixson1/AppDevelopment/Personal Projects/Handmade Game Tutorials OSX/Day7/build" "/Applications/Xcode.app/Contents/Developer/Platforms/MacOSX.platform/Developer/SDKs/MacOSX10.14.sdk/System/Library/Frameworks/AppKit.framework/Headers/NSScreen.h"
	.file	51 "/Users/theodorebendixson1/AppDevelopment/Personal Projects/Handmade Game Tutorials OSX/Day7/build" "/Applications/Xcode.app/Contents/Developer/Platforms/MacOSX.platform/Developer/SDKs/MacOSX10.14.sdk/System/Library/Frameworks/AppKit.framework/Headers/NSNib.h"
	.file	52 "/Users/theodorebendixson1/AppDevelopment/Personal Projects/Handmade Game Tutorials OSX/Day7/build" "/Applications/Xcode.app/Contents/Developer/Platforms/MacOSX.platform/Developer/SDKs/MacOSX10.14.sdk/System/Library/Frameworks/AppKit.framework/Headers/NSWindowController.h"
	.file	53 "/Users/theodorebendixson1/AppDevelopment/Personal Projects/Handmade Game Tutorials OSX/Day7/build" "/Applications/Xcode.app/Contents/Developer/Platforms/MacOSX.platform/Developer/SDKs/MacOSX10.14.sdk/System/Library/Frameworks/AppKit.framework/Headers/NSViewController.h"
	.file	54 "/Users/theodorebendixson1/AppDevelopment/Personal Projects/Handmade Game Tutorials OSX/Day7/build" "/Applications/Xcode.app/Contents/Developer/Platforms/MacOSX.platform/Developer/SDKs/MacOSX10.14.sdk/System/Library/Frameworks/Foundation.framework/Headers/NSBundle.h"
	.file	55 "/Users/theodorebendixson1/AppDevelopment/Personal Projects/Handmade Game Tutorials OSX/Day7/build" "/Applications/Xcode.app/Contents/Developer/Platforms/MacOSX.platform/Developer/SDKs/MacOSX10.14.sdk/System/Library/Frameworks/Foundation.framework/Headers/NSPointerFunctions.h"
	.file	56 "/Users/theodorebendixson1/AppDevelopment/Personal Projects/Handmade Game Tutorials OSX/Day7/build" "/Applications/Xcode.app/Contents/Developer/Platforms/MacOSX.platform/Developer/SDKs/MacOSX10.14.sdk/System/Library/Frameworks/Foundation.framework/Headers/NSPointerArray.h"
	.file	57 "/Users/theodorebendixson1/AppDevelopment/Personal Projects/Handmade Game Tutorials OSX/Day7/build" "/Applications/Xcode.app/Contents/Developer/Platforms/MacOSX.platform/Developer/SDKs/MacOSX10.14.sdk/System/Library/Frameworks/AppKit.framework/Headers/NSDocument.h"
	.file	58 "/Users/theodorebendixson1/AppDevelopment/Personal Projects/Handmade Game Tutorials OSX/Day7/build" "/Applications/Xcode.app/Contents/Developer/Platforms/MacOSX.platform/Developer/SDKs/MacOSX10.14.sdk/System/Library/Frameworks/Foundation.framework/Headers/NSDate.h"
	.file	59 "/Users/theodorebendixson1/AppDevelopment/Personal Projects/Handmade Game Tutorials OSX/Day7/build" "/Applications/Xcode.app/Contents/Developer/Platforms/MacOSX.platform/Developer/SDKs/MacOSX10.14.sdk/System/Library/Frameworks/AppKit.framework/Headers/NSPrintInfo.h"
	.file	60 "/Users/theodorebendixson1/AppDevelopment/Personal Projects/Handmade Game Tutorials OSX/Day7/build" "/Applications/Xcode.app/Contents/Developer/Platforms/MacOSX.platform/Developer/SDKs/MacOSX10.14.sdk/System/Library/Frameworks/AppKit.framework/Headers/NSPrinter.h"
	.file	61 "/Users/theodorebendixson1/AppDevelopment/Personal Projects/Handmade Game Tutorials OSX/Day7/build" "/Applications/Xcode.app/Contents/Developer/Platforms/MacOSX.platform/Developer/SDKs/MacOSX10.14.sdk/System/Library/Frameworks/AppKit.framework/Headers/NSPrintOperation.h"
	.file	62 "/Users/theodorebendixson1/AppDevelopment/Personal Projects/Handmade Game Tutorials OSX/Day7/build" "/Applications/Xcode.app/Contents/Developer/Platforms/MacOSX.platform/Developer/SDKs/MacOSX10.14.sdk/System/Library/Frameworks/AppKit.framework/Headers/NSPrintPanel.h"
	.file	63 "/Users/theodorebendixson1/AppDevelopment/Personal Projects/Handmade Game Tutorials OSX/Day7/build" "/Applications/Xcode.app/Contents/Developer/Platforms/MacOSX.platform/Developer/SDKs/MacOSX10.14.sdk/System/Library/Frameworks/AppKit.framework/Headers/NSHelpManager.h"
	.file	64 "/Users/theodorebendixson1/AppDevelopment/Personal Projects/Handmade Game Tutorials OSX/Day7/build" "/Applications/Xcode.app/Contents/Developer/Platforms/MacOSX.platform/Developer/SDKs/MacOSX10.14.sdk/System/Library/Frameworks/AppKit.framework/Headers/NSPDFPanel.h"
	.file	65 "/Users/theodorebendixson1/AppDevelopment/Personal Projects/Handmade Game Tutorials OSX/Day7/build" "/Applications/Xcode.app/Contents/Developer/Platforms/MacOSX.platform/Developer/SDKs/MacOSX10.14.sdk/System/Library/Frameworks/AppKit.framework/Headers/NSGraphicsContext.h"
	.file	66 "/Users/theodorebendixson1/AppDevelopment/Personal Projects/Handmade Game Tutorials OSX/Day7/build" "/Applications/Xcode.app/Contents/Developer/Platforms/MacOSX.platform/Developer/SDKs/MacOSX10.14.sdk/System/Library/Frameworks/CoreGraphics.framework/Headers/CGContext.h"
	.file	67 "/Users/theodorebendixson1/AppDevelopment/Personal Projects/Handmade Game Tutorials OSX/Day7/build" "/Applications/Xcode.app/Contents/Developer/Platforms/MacOSX.platform/Developer/SDKs/MacOSX10.14.sdk/System/Library/Frameworks/Foundation.framework/Headers/NSRange.h"
	.file	68 "/Users/theodorebendixson1/AppDevelopment/Personal Projects/Handmade Game Tutorials OSX/Day7/build" "/Applications/Xcode.app/Contents/Developer/Platforms/MacOSX.platform/Developer/SDKs/MacOSX10.14.sdk/System/Library/Frameworks/Foundation.framework/Headers/NSUndoManager.h"
	.file	69 "/Users/theodorebendixson1/AppDevelopment/Personal Projects/Handmade Game Tutorials OSX/Day7/build" "/Applications/Xcode.app/Contents/Developer/Platforms/MacOSX.platform/Developer/SDKs/MacOSX10.14.sdk/usr/include/_types/_uint64_t.h"
	.file	70 "/Users/theodorebendixson1/AppDevelopment/Personal Projects/Handmade Game Tutorials OSX/Day7/build" "/Applications/Xcode.app/Contents/Developer/Platforms/MacOSX.platform/Developer/SDKs/MacOSX10.14.sdk/System/Library/Frameworks/AppKit.framework/Headers/NSText.h"
	.file	71 "/Users/theodorebendixson1/AppDevelopment/Personal Projects/Handmade Game Tutorials OSX/Day7/build" "/Applications/Xcode.app/Contents/Developer/Platforms/MacOSX.platform/Developer/SDKs/MacOSX10.14.sdk/System/Library/Frameworks/AppKit.framework/Headers/NSParagraphStyle.h"
	.file	72 "/Users/theodorebendixson1/AppDevelopment/Personal Projects/Handmade Game Tutorials OSX/Day7/build" "/Applications/Xcode.app/Contents/Developer/Platforms/MacOSX.platform/Developer/SDKs/MacOSX10.14.sdk/System/Library/Frameworks/AppKit.framework/Headers/NSActionCell.h"
	.file	73 "/Users/theodorebendixson1/AppDevelopment/Personal Projects/Handmade Game Tutorials OSX/Day7/build" "/Applications/Xcode.app/Contents/Developer/Platforms/MacOSX.platform/Developer/SDKs/MacOSX10.14.sdk/System/Library/Frameworks/AppKit.framework/Headers/NSButtonCell.h"
	.file	74 "/Users/theodorebendixson1/AppDevelopment/Personal Projects/Handmade Game Tutorials OSX/Day7/build" "/Applications/Xcode.app/Contents/Developer/Platforms/MacOSX.platform/Developer/SDKs/MacOSX10.14.sdk/System/Library/Frameworks/AppKit.framework/Headers/NSToolbar.h"
	.file	75 "/Users/theodorebendixson1/AppDevelopment/Personal Projects/Handmade Game Tutorials OSX/Day7/build" "/Applications/Xcode.app/Contents/Developer/Platforms/MacOSX.platform/Developer/SDKs/MacOSX10.14.sdk/System/Library/Frameworks/AppKit.framework/Headers/NSWindowTab.h"
	.file	76 "/Users/theodorebendixson1/AppDevelopment/Personal Projects/Handmade Game Tutorials OSX/Day7/build" "/Applications/Xcode.app/Contents/Developer/Platforms/MacOSX.platform/Developer/SDKs/MacOSX10.14.sdk/System/Library/Frameworks/AppKit.framework/Headers/NSWindowTabGroup.h"
	.file	77 "/Users/theodorebendixson1/AppDevelopment/Personal Projects/Handmade Game Tutorials OSX/Day7/build" "/Applications/Xcode.app/Contents/Developer/Platforms/MacOSX.platform/Developer/SDKs/MacOSX10.14.sdk/System/Library/Frameworks/Foundation.framework/Headers/NSSet.h"
	.file	78 "/Users/theodorebendixson1/AppDevelopment/Personal Projects/Handmade Game Tutorials OSX/Day7/build" "../handmade/code/osx_handmade_windows.h"
	.file	79 "/Users/theodorebendixson1/AppDevelopment/Personal Projects/Handmade Game Tutorials OSX/Day7/build" "/Applications/Xcode.app/Contents/Developer/Toolchains/XcodeDefault.xctoolchain/usr/lib/clang/10.0.1/include/stddef.h"
	.file	80 "/Users/theodorebendixson1/AppDevelopment/Personal Projects/Handmade Game Tutorials OSX/Day7/build" "/Applications/Xcode.app/Contents/Developer/Toolchains/XcodeDefault.xctoolchain/usr/include/c++/v1/cstddef"
	.file	81 "/Users/theodorebendixson1/AppDevelopment/Personal Projects/Handmade Game Tutorials OSX/Day7/build" "/Applications/Xcode.app/Contents/Developer/Platforms/MacOSX.platform/Developer/SDKs/MacOSX10.14.sdk/usr/include/i386/_types.h"
	.file	82 "/Users/theodorebendixson1/AppDevelopment/Personal Projects/Handmade Game Tutorials OSX/Day7/build" "/Applications/Xcode.app/Contents/Developer/Platforms/MacOSX.platform/Developer/SDKs/MacOSX10.14.sdk/usr/include/sys/_types/_size_t.h"
	.file	83 "/Users/theodorebendixson1/AppDevelopment/Personal Projects/Handmade Game Tutorials OSX/Day7/build" "/Applications/Xcode.app/Contents/Developer/Toolchains/XcodeDefault.xctoolchain/usr/include/c++/v1/__nullptr"
	.file	84 "/Users/theodorebendixson1/AppDevelopment/Personal Projects/Handmade Game Tutorials OSX/Day7/build" "/Applications/Xcode.app/Contents/Developer/Toolchains/XcodeDefault.xctoolchain/usr/include/c++/v1/stddef.h"
	.p2align	4, 0x90         ## -- Begin function -[HandmadeMainWindowDelegate windowWillClose:]
"-[HandmadeMainWindowDelegate windowWillClose:]": ## @"\01-[HandmadeMainWindowDelegate windowWillClose:]"
Lfunc_begin0:
	.loc	1 6 0                   ## ../handmade/code/osx_handmade_windows.mm:6:0
	.cfi_startproc
## %bb.0:
	pushq	%rbp
	.cfi_def_cfa_offset 16
	.cfi_offset %rbp, -16
	movq	%rsp, %rbp
	.cfi_def_cfa_register %rbp
	movq	_running@GOTPCREL(%rip), %rax
	movq	%rdi, -8(%rbp)
	movq	%rsi, -16(%rbp)
	movq	%rdx, -24(%rbp)
Ltmp0:
	.loc	1 7 13 prologue_end     ## ../handmade/code/osx_handmade_windows.mm:7:13
	movb	$0, (%rax)
	.loc	1 8 1                   ## ../handmade/code/osx_handmade_windows.mm:8:1
	popq	%rbp
	retq
Ltmp1:
Lfunc_end0:
	.cfi_endproc
                                        ## -- End function
	.p2align	4, 0x90         ## -- Begin function -[HandmadeMainWindowDelegate windowDidResize:]
"-[HandmadeMainWindowDelegate windowDidResize:]": ## @"\01-[HandmadeMainWindowDelegate windowDidResize:]"
Lfunc_begin1:
	.loc	1 10 0                  ## ../handmade/code/osx_handmade_windows.mm:10:0
	.cfi_startproc
## %bb.0:
	pushq	%rbp
	.cfi_def_cfa_offset 16
	.cfi_offset %rbp, -16
	movq	%rsp, %rbp
	.cfi_def_cfa_register %rbp
	subq	$32, %rsp
	movq	%rdi, -8(%rbp)
	movq	%rsi, -16(%rbp)
	movq	%rdx, -24(%rbp)
Ltmp2:
	.loc	1 11 35 prologue_end    ## ../handmade/code/osx_handmade_windows.mm:11:35
	movq	-24(%rbp), %rdx
	.loc	1 11 48 is_stmt 0       ## ../handmade/code/osx_handmade_windows.mm:11:48
	movq	L_OBJC_SELECTOR_REFERENCES_(%rip), %rsi
	movq	%rdx, %rdi
	callq	*_objc_msgSend@GOTPCREL(%rip)
	.loc	1 11 15                 ## ../handmade/code/osx_handmade_windows.mm:11:15
	movq	%rax, -32(%rbp)
	.loc	1 12 24 is_stmt 1       ## ../handmade/code/osx_handmade_windows.mm:12:24
	movq	-32(%rbp), %rdi
	.loc	1 12 5 is_stmt 0        ## ../handmade/code/osx_handmade_windows.mm:12:5
	callq	__Z18macOSRefreshBufferP8NSWindow
	.loc	1 13 5 is_stmt 1        ## ../handmade/code/osx_handmade_windows.mm:13:5
	callq	__Z19renderWeirdGradientv
	.loc	1 14 23                 ## ../handmade/code/osx_handmade_windows.mm:14:23
	movq	-32(%rbp), %rdi
	.loc	1 14 5 is_stmt 0        ## ../handmade/code/osx_handmade_windows.mm:14:5
	callq	__Z17macOSRedrawBufferP8NSWindow
	.loc	1 15 1 is_stmt 1        ## ../handmade/code/osx_handmade_windows.mm:15:1
	addq	$32, %rsp
	popq	%rbp
	retq
Ltmp3:
Lfunc_end1:
	.cfi_endproc
                                        ## -- End function
	.p2align	4, 0x90         ## -- Begin function -[HandmadeKeyIgnoringWindow keyDown:]
"-[HandmadeKeyIgnoringWindow keyDown:]": ## @"\01-[HandmadeKeyIgnoringWindow keyDown:]"
Lfunc_begin2:
	.loc	1 20 0                  ## ../handmade/code/osx_handmade_windows.mm:20:0
	.cfi_startproc
## %bb.0:
	pushq	%rbp
	.cfi_def_cfa_offset 16
	.cfi_offset %rbp, -16
	movq	%rsp, %rbp
	.cfi_def_cfa_register %rbp
	movq	%rdi, -8(%rbp)
	movq	%rsi, -16(%rbp)
	movq	%rdx, -24(%rbp)
Ltmp4:
	.loc	1 20 39 prologue_end    ## ../handmade/code/osx_handmade_windows.mm:20:39
	popq	%rbp
	retq
Ltmp5:
Lfunc_end2:
	.cfi_endproc
                                        ## -- End function
	.section	__TEXT,__objc_methname,cstring_literals
L_OBJC_METH_VAR_NAME_:                  ## @OBJC_METH_VAR_NAME_
	.asciz	"object"

	.section	__DATA,__objc_selrefs,literal_pointers,no_dead_strip
	.p2align	3               ## @OBJC_SELECTOR_REFERENCES_
L_OBJC_SELECTOR_REFERENCES_:
	.quad	L_OBJC_METH_VAR_NAME_

	.section	__TEXT,__objc_classname,cstring_literals
L_OBJC_CLASS_NAME_:                     ## @OBJC_CLASS_NAME_
	.asciz	"HandmadeMainWindowDelegate"

L_OBJC_CLASS_NAME_.1:                   ## @OBJC_CLASS_NAME_.1
	.asciz	"NSWindowDelegate"

L_OBJC_CLASS_NAME_.2:                   ## @OBJC_CLASS_NAME_.2
	.asciz	"NSObject"

	.section	__TEXT,__objc_methname,cstring_literals
L_OBJC_METH_VAR_NAME_.3:                ## @OBJC_METH_VAR_NAME_.3
	.asciz	"isEqual:"

	.section	__TEXT,__objc_methtype,cstring_literals
L_OBJC_METH_VAR_TYPE_:                  ## @OBJC_METH_VAR_TYPE_
	.asciz	"c24@0:8@16"

	.section	__TEXT,__objc_methname,cstring_literals
L_OBJC_METH_VAR_NAME_.4:                ## @OBJC_METH_VAR_NAME_.4
	.asciz	"class"

	.section	__TEXT,__objc_methtype,cstring_literals
L_OBJC_METH_VAR_TYPE_.5:                ## @OBJC_METH_VAR_TYPE_.5
	.asciz	"#16@0:8"

	.section	__TEXT,__objc_methname,cstring_literals
L_OBJC_METH_VAR_NAME_.6:                ## @OBJC_METH_VAR_NAME_.6
	.asciz	"self"

	.section	__TEXT,__objc_methtype,cstring_literals
L_OBJC_METH_VAR_TYPE_.7:                ## @OBJC_METH_VAR_TYPE_.7
	.asciz	"@16@0:8"

	.section	__TEXT,__objc_methname,cstring_literals
L_OBJC_METH_VAR_NAME_.8:                ## @OBJC_METH_VAR_NAME_.8
	.asciz	"performSelector:"

	.section	__TEXT,__objc_methtype,cstring_literals
L_OBJC_METH_VAR_TYPE_.9:                ## @OBJC_METH_VAR_TYPE_.9
	.asciz	"@24@0:8:16"

	.section	__TEXT,__objc_methname,cstring_literals
L_OBJC_METH_VAR_NAME_.10:               ## @OBJC_METH_VAR_NAME_.10
	.asciz	"performSelector:withObject:"

	.section	__TEXT,__objc_methtype,cstring_literals
L_OBJC_METH_VAR_TYPE_.11:               ## @OBJC_METH_VAR_TYPE_.11
	.asciz	"@32@0:8:16@24"

	.section	__TEXT,__objc_methname,cstring_literals
L_OBJC_METH_VAR_NAME_.12:               ## @OBJC_METH_VAR_NAME_.12
	.asciz	"performSelector:withObject:withObject:"

	.section	__TEXT,__objc_methtype,cstring_literals
L_OBJC_METH_VAR_TYPE_.13:               ## @OBJC_METH_VAR_TYPE_.13
	.asciz	"@40@0:8:16@24@32"

	.section	__TEXT,__objc_methname,cstring_literals
L_OBJC_METH_VAR_NAME_.14:               ## @OBJC_METH_VAR_NAME_.14
	.asciz	"isProxy"

	.section	__TEXT,__objc_methtype,cstring_literals
L_OBJC_METH_VAR_TYPE_.15:               ## @OBJC_METH_VAR_TYPE_.15
	.asciz	"c16@0:8"

	.section	__TEXT,__objc_methname,cstring_literals
L_OBJC_METH_VAR_NAME_.16:               ## @OBJC_METH_VAR_NAME_.16
	.asciz	"isKindOfClass:"

	.section	__TEXT,__objc_methtype,cstring_literals
L_OBJC_METH_VAR_TYPE_.17:               ## @OBJC_METH_VAR_TYPE_.17
	.asciz	"c24@0:8#16"

	.section	__TEXT,__objc_methname,cstring_literals
L_OBJC_METH_VAR_NAME_.18:               ## @OBJC_METH_VAR_NAME_.18
	.asciz	"isMemberOfClass:"

L_OBJC_METH_VAR_NAME_.19:               ## @OBJC_METH_VAR_NAME_.19
	.asciz	"conformsToProtocol:"

L_OBJC_METH_VAR_NAME_.20:               ## @OBJC_METH_VAR_NAME_.20
	.asciz	"respondsToSelector:"

	.section	__TEXT,__objc_methtype,cstring_literals
L_OBJC_METH_VAR_TYPE_.21:               ## @OBJC_METH_VAR_TYPE_.21
	.asciz	"c24@0:8:16"

	.section	__TEXT,__objc_methname,cstring_literals
L_OBJC_METH_VAR_NAME_.22:               ## @OBJC_METH_VAR_NAME_.22
	.asciz	"retain"

L_OBJC_METH_VAR_NAME_.23:               ## @OBJC_METH_VAR_NAME_.23
	.asciz	"release"

	.section	__TEXT,__objc_methtype,cstring_literals
L_OBJC_METH_VAR_TYPE_.24:               ## @OBJC_METH_VAR_TYPE_.24
	.asciz	"Vv16@0:8"

	.section	__TEXT,__objc_methname,cstring_literals
L_OBJC_METH_VAR_NAME_.25:               ## @OBJC_METH_VAR_NAME_.25
	.asciz	"autorelease"

L_OBJC_METH_VAR_NAME_.26:               ## @OBJC_METH_VAR_NAME_.26
	.asciz	"retainCount"

	.section	__TEXT,__objc_methtype,cstring_literals
L_OBJC_METH_VAR_TYPE_.27:               ## @OBJC_METH_VAR_TYPE_.27
	.asciz	"Q16@0:8"

	.section	__TEXT,__objc_methname,cstring_literals
L_OBJC_METH_VAR_NAME_.28:               ## @OBJC_METH_VAR_NAME_.28
	.asciz	"zone"

	.section	__TEXT,__objc_methtype,cstring_literals
L_OBJC_METH_VAR_TYPE_.29:               ## @OBJC_METH_VAR_TYPE_.29
	.asciz	"^{_NSZone=}16@0:8"

	.section	__TEXT,__objc_methname,cstring_literals
L_OBJC_METH_VAR_NAME_.30:               ## @OBJC_METH_VAR_NAME_.30
	.asciz	"hash"

L_OBJC_METH_VAR_NAME_.31:               ## @OBJC_METH_VAR_NAME_.31
	.asciz	"superclass"

L_OBJC_METH_VAR_NAME_.32:               ## @OBJC_METH_VAR_NAME_.32
	.asciz	"description"

	.section	__DATA,__objc_const
	.p2align	3               ## @"\01l_OBJC_$_PROTOCOL_INSTANCE_METHODS_NSObject"
l_OBJC_$_PROTOCOL_INSTANCE_METHODS_NSObject:
	.long	24                      ## 0x18
	.long	19                      ## 0x13
	.quad	L_OBJC_METH_VAR_NAME_.3
	.quad	L_OBJC_METH_VAR_TYPE_
	.quad	0
	.quad	L_OBJC_METH_VAR_NAME_.4
	.quad	L_OBJC_METH_VAR_TYPE_.5
	.quad	0
	.quad	L_OBJC_METH_VAR_NAME_.6
	.quad	L_OBJC_METH_VAR_TYPE_.7
	.quad	0
	.quad	L_OBJC_METH_VAR_NAME_.8
	.quad	L_OBJC_METH_VAR_TYPE_.9
	.quad	0
	.quad	L_OBJC_METH_VAR_NAME_.10
	.quad	L_OBJC_METH_VAR_TYPE_.11
	.quad	0
	.quad	L_OBJC_METH_VAR_NAME_.12
	.quad	L_OBJC_METH_VAR_TYPE_.13
	.quad	0
	.quad	L_OBJC_METH_VAR_NAME_.14
	.quad	L_OBJC_METH_VAR_TYPE_.15
	.quad	0
	.quad	L_OBJC_METH_VAR_NAME_.16
	.quad	L_OBJC_METH_VAR_TYPE_.17
	.quad	0
	.quad	L_OBJC_METH_VAR_NAME_.18
	.quad	L_OBJC_METH_VAR_TYPE_.17
	.quad	0
	.quad	L_OBJC_METH_VAR_NAME_.19
	.quad	L_OBJC_METH_VAR_TYPE_
	.quad	0
	.quad	L_OBJC_METH_VAR_NAME_.20
	.quad	L_OBJC_METH_VAR_TYPE_.21
	.quad	0
	.quad	L_OBJC_METH_VAR_NAME_.22
	.quad	L_OBJC_METH_VAR_TYPE_.7
	.quad	0
	.quad	L_OBJC_METH_VAR_NAME_.23
	.quad	L_OBJC_METH_VAR_TYPE_.24
	.quad	0
	.quad	L_OBJC_METH_VAR_NAME_.25
	.quad	L_OBJC_METH_VAR_TYPE_.7
	.quad	0
	.quad	L_OBJC_METH_VAR_NAME_.26
	.quad	L_OBJC_METH_VAR_TYPE_.27
	.quad	0
	.quad	L_OBJC_METH_VAR_NAME_.28
	.quad	L_OBJC_METH_VAR_TYPE_.29
	.quad	0
	.quad	L_OBJC_METH_VAR_NAME_.30
	.quad	L_OBJC_METH_VAR_TYPE_.27
	.quad	0
	.quad	L_OBJC_METH_VAR_NAME_.31
	.quad	L_OBJC_METH_VAR_TYPE_.5
	.quad	0
	.quad	L_OBJC_METH_VAR_NAME_.32
	.quad	L_OBJC_METH_VAR_TYPE_.7
	.quad	0

	.section	__TEXT,__objc_methname,cstring_literals
L_OBJC_METH_VAR_NAME_.33:               ## @OBJC_METH_VAR_NAME_.33
	.asciz	"debugDescription"

	.section	__DATA,__objc_const
	.p2align	3               ## @"\01l_OBJC_$_PROTOCOL_INSTANCE_METHODS_OPT_NSObject"
l_OBJC_$_PROTOCOL_INSTANCE_METHODS_OPT_NSObject:
	.long	24                      ## 0x18
	.long	1                       ## 0x1
	.quad	L_OBJC_METH_VAR_NAME_.33
	.quad	L_OBJC_METH_VAR_TYPE_.7
	.quad	0

	.section	__TEXT,__cstring,cstring_literals
L_OBJC_PROP_NAME_ATTR_:                 ## @OBJC_PROP_NAME_ATTR_
	.asciz	"hash"

L_OBJC_PROP_NAME_ATTR_.34:              ## @OBJC_PROP_NAME_ATTR_.34
	.asciz	"TQ,R"

L_OBJC_PROP_NAME_ATTR_.35:              ## @OBJC_PROP_NAME_ATTR_.35
	.asciz	"superclass"

L_OBJC_PROP_NAME_ATTR_.36:              ## @OBJC_PROP_NAME_ATTR_.36
	.asciz	"T#,R"

L_OBJC_PROP_NAME_ATTR_.37:              ## @OBJC_PROP_NAME_ATTR_.37
	.asciz	"description"

L_OBJC_PROP_NAME_ATTR_.38:              ## @OBJC_PROP_NAME_ATTR_.38
	.asciz	"T@\"NSString\",R,C"

L_OBJC_PROP_NAME_ATTR_.39:              ## @OBJC_PROP_NAME_ATTR_.39
	.asciz	"debugDescription"

	.section	__DATA,__objc_const
	.p2align	3               ## @"\01l_OBJC_$_PROP_LIST_NSObject"
l_OBJC_$_PROP_LIST_NSObject:
	.long	16                      ## 0x10
	.long	4                       ## 0x4
	.quad	L_OBJC_PROP_NAME_ATTR_
	.quad	L_OBJC_PROP_NAME_ATTR_.34
	.quad	L_OBJC_PROP_NAME_ATTR_.35
	.quad	L_OBJC_PROP_NAME_ATTR_.36
	.quad	L_OBJC_PROP_NAME_ATTR_.37
	.quad	L_OBJC_PROP_NAME_ATTR_.38
	.quad	L_OBJC_PROP_NAME_ATTR_.39
	.quad	L_OBJC_PROP_NAME_ATTR_.38

	.section	__TEXT,__objc_methtype,cstring_literals
L_OBJC_METH_VAR_TYPE_.40:               ## @OBJC_METH_VAR_TYPE_.40
	.asciz	"c24@0:8@\"Protocol\"16"

L_OBJC_METH_VAR_TYPE_.41:               ## @OBJC_METH_VAR_TYPE_.41
	.asciz	"@\"NSString\"16@0:8"

	.section	__DATA,__objc_const
	.p2align	3               ## @"\01l_OBJC_$_PROTOCOL_METHOD_TYPES_NSObject"
l_OBJC_$_PROTOCOL_METHOD_TYPES_NSObject:
	.quad	L_OBJC_METH_VAR_TYPE_
	.quad	L_OBJC_METH_VAR_TYPE_.5
	.quad	L_OBJC_METH_VAR_TYPE_.7
	.quad	L_OBJC_METH_VAR_TYPE_.9
	.quad	L_OBJC_METH_VAR_TYPE_.11
	.quad	L_OBJC_METH_VAR_TYPE_.13
	.quad	L_OBJC_METH_VAR_TYPE_.15
	.quad	L_OBJC_METH_VAR_TYPE_.17
	.quad	L_OBJC_METH_VAR_TYPE_.17
	.quad	L_OBJC_METH_VAR_TYPE_.40
	.quad	L_OBJC_METH_VAR_TYPE_.21
	.quad	L_OBJC_METH_VAR_TYPE_.7
	.quad	L_OBJC_METH_VAR_TYPE_.24
	.quad	L_OBJC_METH_VAR_TYPE_.7
	.quad	L_OBJC_METH_VAR_TYPE_.27
	.quad	L_OBJC_METH_VAR_TYPE_.29
	.quad	L_OBJC_METH_VAR_TYPE_.27
	.quad	L_OBJC_METH_VAR_TYPE_.5
	.quad	L_OBJC_METH_VAR_TYPE_.41
	.quad	L_OBJC_METH_VAR_TYPE_.41

	.private_extern	l_OBJC_PROTOCOL_$_NSObject ## @"\01l_OBJC_PROTOCOL_$_NSObject"
	.section	__DATA,__data
	.globl	l_OBJC_PROTOCOL_$_NSObject
	.weak_definition	l_OBJC_PROTOCOL_$_NSObject
	.p2align	3
l_OBJC_PROTOCOL_$_NSObject:
	.quad	0
	.quad	L_OBJC_CLASS_NAME_.2
	.quad	0
	.quad	l_OBJC_$_PROTOCOL_INSTANCE_METHODS_NSObject
	.quad	0
	.quad	l_OBJC_$_PROTOCOL_INSTANCE_METHODS_OPT_NSObject
	.quad	0
	.quad	l_OBJC_$_PROP_LIST_NSObject
	.long	96                      ## 0x60
	.long	0                       ## 0x0
	.quad	l_OBJC_$_PROTOCOL_METHOD_TYPES_NSObject
	.quad	0
	.quad	0

	.private_extern	l_OBJC_LABEL_PROTOCOL_$_NSObject ## @"\01l_OBJC_LABEL_PROTOCOL_$_NSObject"
	.section	__DATA,__objc_protolist,coalesced,no_dead_strip
	.globl	l_OBJC_LABEL_PROTOCOL_$_NSObject
	.weak_definition	l_OBJC_LABEL_PROTOCOL_$_NSObject
	.p2align	3
l_OBJC_LABEL_PROTOCOL_$_NSObject:
	.quad	l_OBJC_PROTOCOL_$_NSObject

	.section	__DATA,__objc_const
	.p2align	3               ## @"\01l_OBJC_$_PROTOCOL_REFS_NSWindowDelegate"
l_OBJC_$_PROTOCOL_REFS_NSWindowDelegate:
	.quad	1                       ## 0x1
	.quad	l_OBJC_PROTOCOL_$_NSObject
	.quad	0

	.section	__TEXT,__objc_methname,cstring_literals
L_OBJC_METH_VAR_NAME_.42:               ## @OBJC_METH_VAR_NAME_.42
	.asciz	"windowShouldClose:"

L_OBJC_METH_VAR_NAME_.43:               ## @OBJC_METH_VAR_NAME_.43
	.asciz	"windowWillReturnFieldEditor:toObject:"

	.section	__TEXT,__objc_methtype,cstring_literals
L_OBJC_METH_VAR_TYPE_.44:               ## @OBJC_METH_VAR_TYPE_.44
	.asciz	"@32@0:8@16@24"

	.section	__TEXT,__objc_methname,cstring_literals
L_OBJC_METH_VAR_NAME_.45:               ## @OBJC_METH_VAR_NAME_.45
	.asciz	"windowWillResize:toSize:"

	.section	__TEXT,__objc_methtype,cstring_literals
L_OBJC_METH_VAR_TYPE_.46:               ## @OBJC_METH_VAR_TYPE_.46
	.asciz	"{CGSize=dd}40@0:8@16{CGSize=dd}24"

	.section	__TEXT,__objc_methname,cstring_literals
L_OBJC_METH_VAR_NAME_.47:               ## @OBJC_METH_VAR_NAME_.47
	.asciz	"windowWillUseStandardFrame:defaultFrame:"

	.section	__TEXT,__objc_methtype,cstring_literals
L_OBJC_METH_VAR_TYPE_.48:               ## @OBJC_METH_VAR_TYPE_.48
	.asciz	"{CGRect={CGPoint=dd}{CGSize=dd}}56@0:8@16{CGRect={CGPoint=dd}{CGSize=dd}}24"

	.section	__TEXT,__objc_methname,cstring_literals
L_OBJC_METH_VAR_NAME_.49:               ## @OBJC_METH_VAR_NAME_.49
	.asciz	"windowShouldZoom:toFrame:"

	.section	__TEXT,__objc_methtype,cstring_literals
L_OBJC_METH_VAR_TYPE_.50:               ## @OBJC_METH_VAR_TYPE_.50
	.asciz	"c56@0:8@16{CGRect={CGPoint=dd}{CGSize=dd}}24"

	.section	__TEXT,__objc_methname,cstring_literals
L_OBJC_METH_VAR_NAME_.51:               ## @OBJC_METH_VAR_NAME_.51
	.asciz	"windowWillReturnUndoManager:"

	.section	__TEXT,__objc_methtype,cstring_literals
L_OBJC_METH_VAR_TYPE_.52:               ## @OBJC_METH_VAR_TYPE_.52
	.asciz	"@24@0:8@16"

	.section	__TEXT,__objc_methname,cstring_literals
L_OBJC_METH_VAR_NAME_.53:               ## @OBJC_METH_VAR_NAME_.53
	.asciz	"window:willPositionSheet:usingRect:"

	.section	__TEXT,__objc_methtype,cstring_literals
L_OBJC_METH_VAR_TYPE_.54:               ## @OBJC_METH_VAR_TYPE_.54
	.asciz	"{CGRect={CGPoint=dd}{CGSize=dd}}64@0:8@16@24{CGRect={CGPoint=dd}{CGSize=dd}}32"

	.section	__TEXT,__objc_methname,cstring_literals
L_OBJC_METH_VAR_NAME_.55:               ## @OBJC_METH_VAR_NAME_.55
	.asciz	"window:shouldPopUpDocumentPathMenu:"

	.section	__TEXT,__objc_methtype,cstring_literals
L_OBJC_METH_VAR_TYPE_.56:               ## @OBJC_METH_VAR_TYPE_.56
	.asciz	"c32@0:8@16@24"

	.section	__TEXT,__objc_methname,cstring_literals
L_OBJC_METH_VAR_NAME_.57:               ## @OBJC_METH_VAR_NAME_.57
	.asciz	"window:shouldDragDocumentWithEvent:from:withPasteboard:"

	.section	__TEXT,__objc_methtype,cstring_literals
L_OBJC_METH_VAR_TYPE_.58:               ## @OBJC_METH_VAR_TYPE_.58
	.asciz	"c56@0:8@16@24{CGPoint=dd}32@48"

	.section	__TEXT,__objc_methname,cstring_literals
L_OBJC_METH_VAR_NAME_.59:               ## @OBJC_METH_VAR_NAME_.59
	.asciz	"window:willUseFullScreenContentSize:"

L_OBJC_METH_VAR_NAME_.60:               ## @OBJC_METH_VAR_NAME_.60
	.asciz	"window:willUseFullScreenPresentationOptions:"

	.section	__TEXT,__objc_methtype,cstring_literals
L_OBJC_METH_VAR_TYPE_.61:               ## @OBJC_METH_VAR_TYPE_.61
	.asciz	"Q32@0:8@16Q24"

	.section	__TEXT,__objc_methname,cstring_literals
L_OBJC_METH_VAR_NAME_.62:               ## @OBJC_METH_VAR_NAME_.62
	.asciz	"customWindowsToEnterFullScreenForWindow:"

L_OBJC_METH_VAR_NAME_.63:               ## @OBJC_METH_VAR_NAME_.63
	.asciz	"window:startCustomAnimationToEnterFullScreenWithDuration:"

	.section	__TEXT,__objc_methtype,cstring_literals
L_OBJC_METH_VAR_TYPE_.64:               ## @OBJC_METH_VAR_TYPE_.64
	.asciz	"v32@0:8@16d24"

	.section	__TEXT,__objc_methname,cstring_literals
L_OBJC_METH_VAR_NAME_.65:               ## @OBJC_METH_VAR_NAME_.65
	.asciz	"windowDidFailToEnterFullScreen:"

	.section	__TEXT,__objc_methtype,cstring_literals
L_OBJC_METH_VAR_TYPE_.66:               ## @OBJC_METH_VAR_TYPE_.66
	.asciz	"v24@0:8@16"

	.section	__TEXT,__objc_methname,cstring_literals
L_OBJC_METH_VAR_NAME_.67:               ## @OBJC_METH_VAR_NAME_.67
	.asciz	"customWindowsToExitFullScreenForWindow:"

L_OBJC_METH_VAR_NAME_.68:               ## @OBJC_METH_VAR_NAME_.68
	.asciz	"window:startCustomAnimationToExitFullScreenWithDuration:"

L_OBJC_METH_VAR_NAME_.69:               ## @OBJC_METH_VAR_NAME_.69
	.asciz	"customWindowsToEnterFullScreenForWindow:onScreen:"

L_OBJC_METH_VAR_NAME_.70:               ## @OBJC_METH_VAR_NAME_.70
	.asciz	"window:startCustomAnimationToEnterFullScreenOnScreen:withDuration:"

	.section	__TEXT,__objc_methtype,cstring_literals
L_OBJC_METH_VAR_TYPE_.71:               ## @OBJC_METH_VAR_TYPE_.71
	.asciz	"v40@0:8@16@24d32"

	.section	__TEXT,__objc_methname,cstring_literals
L_OBJC_METH_VAR_NAME_.72:               ## @OBJC_METH_VAR_NAME_.72
	.asciz	"windowDidFailToExitFullScreen:"

L_OBJC_METH_VAR_NAME_.73:               ## @OBJC_METH_VAR_NAME_.73
	.asciz	"window:willResizeForVersionBrowserWithMaxPreferredSize:maxAllowedSize:"

	.section	__TEXT,__objc_methtype,cstring_literals
L_OBJC_METH_VAR_TYPE_.74:               ## @OBJC_METH_VAR_TYPE_.74
	.asciz	"{CGSize=dd}56@0:8@16{CGSize=dd}24{CGSize=dd}40"

	.section	__TEXT,__objc_methname,cstring_literals
L_OBJC_METH_VAR_NAME_.75:               ## @OBJC_METH_VAR_NAME_.75
	.asciz	"window:willEncodeRestorableState:"

	.section	__TEXT,__objc_methtype,cstring_literals
L_OBJC_METH_VAR_TYPE_.76:               ## @OBJC_METH_VAR_TYPE_.76
	.asciz	"v32@0:8@16@24"

	.section	__TEXT,__objc_methname,cstring_literals
L_OBJC_METH_VAR_NAME_.77:               ## @OBJC_METH_VAR_NAME_.77
	.asciz	"window:didDecodeRestorableState:"

L_OBJC_METH_VAR_NAME_.78:               ## @OBJC_METH_VAR_NAME_.78
	.asciz	"windowDidResize:"

L_OBJC_METH_VAR_NAME_.79:               ## @OBJC_METH_VAR_NAME_.79
	.asciz	"windowDidExpose:"

L_OBJC_METH_VAR_NAME_.80:               ## @OBJC_METH_VAR_NAME_.80
	.asciz	"windowWillMove:"

L_OBJC_METH_VAR_NAME_.81:               ## @OBJC_METH_VAR_NAME_.81
	.asciz	"windowDidMove:"

L_OBJC_METH_VAR_NAME_.82:               ## @OBJC_METH_VAR_NAME_.82
	.asciz	"windowDidBecomeKey:"

L_OBJC_METH_VAR_NAME_.83:               ## @OBJC_METH_VAR_NAME_.83
	.asciz	"windowDidResignKey:"

L_OBJC_METH_VAR_NAME_.84:               ## @OBJC_METH_VAR_NAME_.84
	.asciz	"windowDidBecomeMain:"

L_OBJC_METH_VAR_NAME_.85:               ## @OBJC_METH_VAR_NAME_.85
	.asciz	"windowDidResignMain:"

L_OBJC_METH_VAR_NAME_.86:               ## @OBJC_METH_VAR_NAME_.86
	.asciz	"windowWillClose:"

L_OBJC_METH_VAR_NAME_.87:               ## @OBJC_METH_VAR_NAME_.87
	.asciz	"windowWillMiniaturize:"

L_OBJC_METH_VAR_NAME_.88:               ## @OBJC_METH_VAR_NAME_.88
	.asciz	"windowDidMiniaturize:"

L_OBJC_METH_VAR_NAME_.89:               ## @OBJC_METH_VAR_NAME_.89
	.asciz	"windowDidDeminiaturize:"

L_OBJC_METH_VAR_NAME_.90:               ## @OBJC_METH_VAR_NAME_.90
	.asciz	"windowDidUpdate:"

L_OBJC_METH_VAR_NAME_.91:               ## @OBJC_METH_VAR_NAME_.91
	.asciz	"windowDidChangeScreen:"

L_OBJC_METH_VAR_NAME_.92:               ## @OBJC_METH_VAR_NAME_.92
	.asciz	"windowDidChangeScreenProfile:"

L_OBJC_METH_VAR_NAME_.93:               ## @OBJC_METH_VAR_NAME_.93
	.asciz	"windowDidChangeBackingProperties:"

L_OBJC_METH_VAR_NAME_.94:               ## @OBJC_METH_VAR_NAME_.94
	.asciz	"windowWillBeginSheet:"

L_OBJC_METH_VAR_NAME_.95:               ## @OBJC_METH_VAR_NAME_.95
	.asciz	"windowDidEndSheet:"

L_OBJC_METH_VAR_NAME_.96:               ## @OBJC_METH_VAR_NAME_.96
	.asciz	"windowWillStartLiveResize:"

L_OBJC_METH_VAR_NAME_.97:               ## @OBJC_METH_VAR_NAME_.97
	.asciz	"windowDidEndLiveResize:"

L_OBJC_METH_VAR_NAME_.98:               ## @OBJC_METH_VAR_NAME_.98
	.asciz	"windowWillEnterFullScreen:"

L_OBJC_METH_VAR_NAME_.99:               ## @OBJC_METH_VAR_NAME_.99
	.asciz	"windowDidEnterFullScreen:"

L_OBJC_METH_VAR_NAME_.100:              ## @OBJC_METH_VAR_NAME_.100
	.asciz	"windowWillExitFullScreen:"

L_OBJC_METH_VAR_NAME_.101:              ## @OBJC_METH_VAR_NAME_.101
	.asciz	"windowDidExitFullScreen:"

L_OBJC_METH_VAR_NAME_.102:              ## @OBJC_METH_VAR_NAME_.102
	.asciz	"windowWillEnterVersionBrowser:"

L_OBJC_METH_VAR_NAME_.103:              ## @OBJC_METH_VAR_NAME_.103
	.asciz	"windowDidEnterVersionBrowser:"

L_OBJC_METH_VAR_NAME_.104:              ## @OBJC_METH_VAR_NAME_.104
	.asciz	"windowWillExitVersionBrowser:"

L_OBJC_METH_VAR_NAME_.105:              ## @OBJC_METH_VAR_NAME_.105
	.asciz	"windowDidExitVersionBrowser:"

L_OBJC_METH_VAR_NAME_.106:              ## @OBJC_METH_VAR_NAME_.106
	.asciz	"windowDidChangeOcclusionState:"

	.section	__DATA,__objc_const
	.p2align	3               ## @"\01l_OBJC_$_PROTOCOL_INSTANCE_METHODS_OPT_NSWindowDelegate"
l_OBJC_$_PROTOCOL_INSTANCE_METHODS_OPT_NSWindowDelegate:
	.long	24                      ## 0x18
	.long	51                      ## 0x33
	.quad	L_OBJC_METH_VAR_NAME_.42
	.quad	L_OBJC_METH_VAR_TYPE_
	.quad	0
	.quad	L_OBJC_METH_VAR_NAME_.43
	.quad	L_OBJC_METH_VAR_TYPE_.44
	.quad	0
	.quad	L_OBJC_METH_VAR_NAME_.45
	.quad	L_OBJC_METH_VAR_TYPE_.46
	.quad	0
	.quad	L_OBJC_METH_VAR_NAME_.47
	.quad	L_OBJC_METH_VAR_TYPE_.48
	.quad	0
	.quad	L_OBJC_METH_VAR_NAME_.49
	.quad	L_OBJC_METH_VAR_TYPE_.50
	.quad	0
	.quad	L_OBJC_METH_VAR_NAME_.51
	.quad	L_OBJC_METH_VAR_TYPE_.52
	.quad	0
	.quad	L_OBJC_METH_VAR_NAME_.53
	.quad	L_OBJC_METH_VAR_TYPE_.54
	.quad	0
	.quad	L_OBJC_METH_VAR_NAME_.55
	.quad	L_OBJC_METH_VAR_TYPE_.56
	.quad	0
	.quad	L_OBJC_METH_VAR_NAME_.57
	.quad	L_OBJC_METH_VAR_TYPE_.58
	.quad	0
	.quad	L_OBJC_METH_VAR_NAME_.59
	.quad	L_OBJC_METH_VAR_TYPE_.46
	.quad	0
	.quad	L_OBJC_METH_VAR_NAME_.60
	.quad	L_OBJC_METH_VAR_TYPE_.61
	.quad	0
	.quad	L_OBJC_METH_VAR_NAME_.62
	.quad	L_OBJC_METH_VAR_TYPE_.52
	.quad	0
	.quad	L_OBJC_METH_VAR_NAME_.63
	.quad	L_OBJC_METH_VAR_TYPE_.64
	.quad	0
	.quad	L_OBJC_METH_VAR_NAME_.65
	.quad	L_OBJC_METH_VAR_TYPE_.66
	.quad	0
	.quad	L_OBJC_METH_VAR_NAME_.67
	.quad	L_OBJC_METH_VAR_TYPE_.52
	.quad	0
	.quad	L_OBJC_METH_VAR_NAME_.68
	.quad	L_OBJC_METH_VAR_TYPE_.64
	.quad	0
	.quad	L_OBJC_METH_VAR_NAME_.69
	.quad	L_OBJC_METH_VAR_TYPE_.44
	.quad	0
	.quad	L_OBJC_METH_VAR_NAME_.70
	.quad	L_OBJC_METH_VAR_TYPE_.71
	.quad	0
	.quad	L_OBJC_METH_VAR_NAME_.72
	.quad	L_OBJC_METH_VAR_TYPE_.66
	.quad	0
	.quad	L_OBJC_METH_VAR_NAME_.73
	.quad	L_OBJC_METH_VAR_TYPE_.74
	.quad	0
	.quad	L_OBJC_METH_VAR_NAME_.75
	.quad	L_OBJC_METH_VAR_TYPE_.76
	.quad	0
	.quad	L_OBJC_METH_VAR_NAME_.77
	.quad	L_OBJC_METH_VAR_TYPE_.76
	.quad	0
	.quad	L_OBJC_METH_VAR_NAME_.78
	.quad	L_OBJC_METH_VAR_TYPE_.66
	.quad	0
	.quad	L_OBJC_METH_VAR_NAME_.79
	.quad	L_OBJC_METH_VAR_TYPE_.66
	.quad	0
	.quad	L_OBJC_METH_VAR_NAME_.80
	.quad	L_OBJC_METH_VAR_TYPE_.66
	.quad	0
	.quad	L_OBJC_METH_VAR_NAME_.81
	.quad	L_OBJC_METH_VAR_TYPE_.66
	.quad	0
	.quad	L_OBJC_METH_VAR_NAME_.82
	.quad	L_OBJC_METH_VAR_TYPE_.66
	.quad	0
	.quad	L_OBJC_METH_VAR_NAME_.83
	.quad	L_OBJC_METH_VAR_TYPE_.66
	.quad	0
	.quad	L_OBJC_METH_VAR_NAME_.84
	.quad	L_OBJC_METH_VAR_TYPE_.66
	.quad	0
	.quad	L_OBJC_METH_VAR_NAME_.85
	.quad	L_OBJC_METH_VAR_TYPE_.66
	.quad	0
	.quad	L_OBJC_METH_VAR_NAME_.86
	.quad	L_OBJC_METH_VAR_TYPE_.66
	.quad	0
	.quad	L_OBJC_METH_VAR_NAME_.87
	.quad	L_OBJC_METH_VAR_TYPE_.66
	.quad	0
	.quad	L_OBJC_METH_VAR_NAME_.88
	.quad	L_OBJC_METH_VAR_TYPE_.66
	.quad	0
	.quad	L_OBJC_METH_VAR_NAME_.89
	.quad	L_OBJC_METH_VAR_TYPE_.66
	.quad	0
	.quad	L_OBJC_METH_VAR_NAME_.90
	.quad	L_OBJC_METH_VAR_TYPE_.66
	.quad	0
	.quad	L_OBJC_METH_VAR_NAME_.91
	.quad	L_OBJC_METH_VAR_TYPE_.66
	.quad	0
	.quad	L_OBJC_METH_VAR_NAME_.92
	.quad	L_OBJC_METH_VAR_TYPE_.66
	.quad	0
	.quad	L_OBJC_METH_VAR_NAME_.93
	.quad	L_OBJC_METH_VAR_TYPE_.66
	.quad	0
	.quad	L_OBJC_METH_VAR_NAME_.94
	.quad	L_OBJC_METH_VAR_TYPE_.66
	.quad	0
	.quad	L_OBJC_METH_VAR_NAME_.95
	.quad	L_OBJC_METH_VAR_TYPE_.66
	.quad	0
	.quad	L_OBJC_METH_VAR_NAME_.96
	.quad	L_OBJC_METH_VAR_TYPE_.66
	.quad	0
	.quad	L_OBJC_METH_VAR_NAME_.97
	.quad	L_OBJC_METH_VAR_TYPE_.66
	.quad	0
	.quad	L_OBJC_METH_VAR_NAME_.98
	.quad	L_OBJC_METH_VAR_TYPE_.66
	.quad	0
	.quad	L_OBJC_METH_VAR_NAME_.99
	.quad	L_OBJC_METH_VAR_TYPE_.66
	.quad	0
	.quad	L_OBJC_METH_VAR_NAME_.100
	.quad	L_OBJC_METH_VAR_TYPE_.66
	.quad	0
	.quad	L_OBJC_METH_VAR_NAME_.101
	.quad	L_OBJC_METH_VAR_TYPE_.66
	.quad	0
	.quad	L_OBJC_METH_VAR_NAME_.102
	.quad	L_OBJC_METH_VAR_TYPE_.66
	.quad	0
	.quad	L_OBJC_METH_VAR_NAME_.103
	.quad	L_OBJC_METH_VAR_TYPE_.66
	.quad	0
	.quad	L_OBJC_METH_VAR_NAME_.104
	.quad	L_OBJC_METH_VAR_TYPE_.66
	.quad	0
	.quad	L_OBJC_METH_VAR_NAME_.105
	.quad	L_OBJC_METH_VAR_TYPE_.66
	.quad	0
	.quad	L_OBJC_METH_VAR_NAME_.106
	.quad	L_OBJC_METH_VAR_TYPE_.66
	.quad	0

	.section	__TEXT,__objc_methtype,cstring_literals
L_OBJC_METH_VAR_TYPE_.107:              ## @OBJC_METH_VAR_TYPE_.107
	.asciz	"c24@0:8@\"NSWindow\"16"

L_OBJC_METH_VAR_TYPE_.108:              ## @OBJC_METH_VAR_TYPE_.108
	.asciz	"@32@0:8@\"NSWindow\"16@24"

L_OBJC_METH_VAR_TYPE_.109:              ## @OBJC_METH_VAR_TYPE_.109
	.asciz	"{CGSize=dd}40@0:8@\"NSWindow\"16{CGSize=dd}24"

L_OBJC_METH_VAR_TYPE_.110:              ## @OBJC_METH_VAR_TYPE_.110
	.asciz	"{CGRect={CGPoint=dd}{CGSize=dd}}56@0:8@\"NSWindow\"16{CGRect={CGPoint=dd}{CGSize=dd}}24"

L_OBJC_METH_VAR_TYPE_.111:              ## @OBJC_METH_VAR_TYPE_.111
	.asciz	"c56@0:8@\"NSWindow\"16{CGRect={CGPoint=dd}{CGSize=dd}}24"

L_OBJC_METH_VAR_TYPE_.112:              ## @OBJC_METH_VAR_TYPE_.112
	.asciz	"@\"NSUndoManager\"24@0:8@\"NSWindow\"16"

L_OBJC_METH_VAR_TYPE_.113:              ## @OBJC_METH_VAR_TYPE_.113
	.asciz	"{CGRect={CGPoint=dd}{CGSize=dd}}64@0:8@\"NSWindow\"16@\"NSWindow\"24{CGRect={CGPoint=dd}{CGSize=dd}}32"

L_OBJC_METH_VAR_TYPE_.114:              ## @OBJC_METH_VAR_TYPE_.114
	.asciz	"c32@0:8@\"NSWindow\"16@\"NSMenu\"24"

L_OBJC_METH_VAR_TYPE_.115:              ## @OBJC_METH_VAR_TYPE_.115
	.asciz	"c56@0:8@\"NSWindow\"16@\"NSEvent\"24{CGPoint=dd}32@\"NSPasteboard\"48"

L_OBJC_METH_VAR_TYPE_.116:              ## @OBJC_METH_VAR_TYPE_.116
	.asciz	"Q32@0:8@\"NSWindow\"16Q24"

L_OBJC_METH_VAR_TYPE_.117:              ## @OBJC_METH_VAR_TYPE_.117
	.asciz	"@\"NSArray\"24@0:8@\"NSWindow\"16"

L_OBJC_METH_VAR_TYPE_.118:              ## @OBJC_METH_VAR_TYPE_.118
	.asciz	"v32@0:8@\"NSWindow\"16d24"

L_OBJC_METH_VAR_TYPE_.119:              ## @OBJC_METH_VAR_TYPE_.119
	.asciz	"v24@0:8@\"NSWindow\"16"

L_OBJC_METH_VAR_TYPE_.120:              ## @OBJC_METH_VAR_TYPE_.120
	.asciz	"@\"NSArray\"32@0:8@\"NSWindow\"16@\"NSScreen\"24"

L_OBJC_METH_VAR_TYPE_.121:              ## @OBJC_METH_VAR_TYPE_.121
	.asciz	"v40@0:8@\"NSWindow\"16@\"NSScreen\"24d32"

L_OBJC_METH_VAR_TYPE_.122:              ## @OBJC_METH_VAR_TYPE_.122
	.asciz	"{CGSize=dd}56@0:8@\"NSWindow\"16{CGSize=dd}24{CGSize=dd}40"

L_OBJC_METH_VAR_TYPE_.123:              ## @OBJC_METH_VAR_TYPE_.123
	.asciz	"v32@0:8@\"NSWindow\"16@\"NSCoder\"24"

L_OBJC_METH_VAR_TYPE_.124:              ## @OBJC_METH_VAR_TYPE_.124
	.asciz	"v24@0:8@\"NSNotification\"16"

	.section	__DATA,__objc_const
	.p2align	3               ## @"\01l_OBJC_$_PROTOCOL_METHOD_TYPES_NSWindowDelegate"
l_OBJC_$_PROTOCOL_METHOD_TYPES_NSWindowDelegate:
	.quad	L_OBJC_METH_VAR_TYPE_.107
	.quad	L_OBJC_METH_VAR_TYPE_.108
	.quad	L_OBJC_METH_VAR_TYPE_.109
	.quad	L_OBJC_METH_VAR_TYPE_.110
	.quad	L_OBJC_METH_VAR_TYPE_.111
	.quad	L_OBJC_METH_VAR_TYPE_.112
	.quad	L_OBJC_METH_VAR_TYPE_.113
	.quad	L_OBJC_METH_VAR_TYPE_.114
	.quad	L_OBJC_METH_VAR_TYPE_.115
	.quad	L_OBJC_METH_VAR_TYPE_.109
	.quad	L_OBJC_METH_VAR_TYPE_.116
	.quad	L_OBJC_METH_VAR_TYPE_.117
	.quad	L_OBJC_METH_VAR_TYPE_.118
	.quad	L_OBJC_METH_VAR_TYPE_.119
	.quad	L_OBJC_METH_VAR_TYPE_.117
	.quad	L_OBJC_METH_VAR_TYPE_.118
	.quad	L_OBJC_METH_VAR_TYPE_.120
	.quad	L_OBJC_METH_VAR_TYPE_.121
	.quad	L_OBJC_METH_VAR_TYPE_.119
	.quad	L_OBJC_METH_VAR_TYPE_.122
	.quad	L_OBJC_METH_VAR_TYPE_.123
	.quad	L_OBJC_METH_VAR_TYPE_.123
	.quad	L_OBJC_METH_VAR_TYPE_.124
	.quad	L_OBJC_METH_VAR_TYPE_.124
	.quad	L_OBJC_METH_VAR_TYPE_.124
	.quad	L_OBJC_METH_VAR_TYPE_.124
	.quad	L_OBJC_METH_VAR_TYPE_.124
	.quad	L_OBJC_METH_VAR_TYPE_.124
	.quad	L_OBJC_METH_VAR_TYPE_.124
	.quad	L_OBJC_METH_VAR_TYPE_.124
	.quad	L_OBJC_METH_VAR_TYPE_.124
	.quad	L_OBJC_METH_VAR_TYPE_.124
	.quad	L_OBJC_METH_VAR_TYPE_.124
	.quad	L_OBJC_METH_VAR_TYPE_.124
	.quad	L_OBJC_METH_VAR_TYPE_.124
	.quad	L_OBJC_METH_VAR_TYPE_.124
	.quad	L_OBJC_METH_VAR_TYPE_.124
	.quad	L_OBJC_METH_VAR_TYPE_.124
	.quad	L_OBJC_METH_VAR_TYPE_.124
	.quad	L_OBJC_METH_VAR_TYPE_.124
	.quad	L_OBJC_METH_VAR_TYPE_.124
	.quad	L_OBJC_METH_VAR_TYPE_.124
	.quad	L_OBJC_METH_VAR_TYPE_.124
	.quad	L_OBJC_METH_VAR_TYPE_.124
	.quad	L_OBJC_METH_VAR_TYPE_.124
	.quad	L_OBJC_METH_VAR_TYPE_.124
	.quad	L_OBJC_METH_VAR_TYPE_.124
	.quad	L_OBJC_METH_VAR_TYPE_.124
	.quad	L_OBJC_METH_VAR_TYPE_.124
	.quad	L_OBJC_METH_VAR_TYPE_.124
	.quad	L_OBJC_METH_VAR_TYPE_.124

	.private_extern	l_OBJC_PROTOCOL_$_NSWindowDelegate ## @"\01l_OBJC_PROTOCOL_$_NSWindowDelegate"
	.section	__DATA,__data
	.globl	l_OBJC_PROTOCOL_$_NSWindowDelegate
	.weak_definition	l_OBJC_PROTOCOL_$_NSWindowDelegate
	.p2align	3
l_OBJC_PROTOCOL_$_NSWindowDelegate:
	.quad	0
	.quad	L_OBJC_CLASS_NAME_.1
	.quad	l_OBJC_$_PROTOCOL_REFS_NSWindowDelegate
	.quad	0
	.quad	0
	.quad	l_OBJC_$_PROTOCOL_INSTANCE_METHODS_OPT_NSWindowDelegate
	.quad	0
	.quad	0
	.long	96                      ## 0x60
	.long	0                       ## 0x0
	.quad	l_OBJC_$_PROTOCOL_METHOD_TYPES_NSWindowDelegate
	.quad	0
	.quad	0

	.private_extern	l_OBJC_LABEL_PROTOCOL_$_NSWindowDelegate ## @"\01l_OBJC_LABEL_PROTOCOL_$_NSWindowDelegate"
	.section	__DATA,__objc_protolist,coalesced,no_dead_strip
	.globl	l_OBJC_LABEL_PROTOCOL_$_NSWindowDelegate
	.weak_definition	l_OBJC_LABEL_PROTOCOL_$_NSWindowDelegate
	.p2align	3
l_OBJC_LABEL_PROTOCOL_$_NSWindowDelegate:
	.quad	l_OBJC_PROTOCOL_$_NSWindowDelegate

	.section	__DATA,__objc_const
	.p2align	3               ## @"\01l_OBJC_CLASS_PROTOCOLS_$_HandmadeMainWindowDelegate"
l_OBJC_CLASS_PROTOCOLS_$_HandmadeMainWindowDelegate:
	.quad	1                       ## 0x1
	.quad	l_OBJC_PROTOCOL_$_NSWindowDelegate
	.quad	0

	.p2align	3               ## @"\01l_OBJC_METACLASS_RO_$_HandmadeMainWindowDelegate"
l_OBJC_METACLASS_RO_$_HandmadeMainWindowDelegate:
	.long	1                       ## 0x1
	.long	40                      ## 0x28
	.long	40                      ## 0x28
	.space	4
	.quad	0
	.quad	L_OBJC_CLASS_NAME_
	.quad	0
	.quad	l_OBJC_CLASS_PROTOCOLS_$_HandmadeMainWindowDelegate
	.quad	0
	.quad	0
	.quad	0

	.section	__DATA,__objc_data
	.globl	_OBJC_METACLASS_$_HandmadeMainWindowDelegate ## @"OBJC_METACLASS_$_HandmadeMainWindowDelegate"
	.p2align	3
_OBJC_METACLASS_$_HandmadeMainWindowDelegate:
	.quad	_OBJC_METACLASS_$_NSObject
	.quad	_OBJC_METACLASS_$_NSObject
	.quad	__objc_empty_cache
	.quad	0
	.quad	l_OBJC_METACLASS_RO_$_HandmadeMainWindowDelegate

	.section	__DATA,__objc_const
	.p2align	3               ## @"\01l_OBJC_$_INSTANCE_METHODS_HandmadeMainWindowDelegate"
l_OBJC_$_INSTANCE_METHODS_HandmadeMainWindowDelegate:
	.long	24                      ## 0x18
	.long	2                       ## 0x2
	.quad	L_OBJC_METH_VAR_NAME_.86
	.quad	L_OBJC_METH_VAR_TYPE_.66
	.quad	"-[HandmadeMainWindowDelegate windowWillClose:]"
	.quad	L_OBJC_METH_VAR_NAME_.78
	.quad	L_OBJC_METH_VAR_TYPE_.66
	.quad	"-[HandmadeMainWindowDelegate windowDidResize:]"

	.p2align	3               ## @"\01l_OBJC_$_PROP_LIST_HandmadeMainWindowDelegate"
l_OBJC_$_PROP_LIST_HandmadeMainWindowDelegate:
	.long	16                      ## 0x10
	.long	4                       ## 0x4
	.quad	L_OBJC_PROP_NAME_ATTR_
	.quad	L_OBJC_PROP_NAME_ATTR_.34
	.quad	L_OBJC_PROP_NAME_ATTR_.35
	.quad	L_OBJC_PROP_NAME_ATTR_.36
	.quad	L_OBJC_PROP_NAME_ATTR_.37
	.quad	L_OBJC_PROP_NAME_ATTR_.38
	.quad	L_OBJC_PROP_NAME_ATTR_.39
	.quad	L_OBJC_PROP_NAME_ATTR_.38

	.p2align	3               ## @"\01l_OBJC_CLASS_RO_$_HandmadeMainWindowDelegate"
l_OBJC_CLASS_RO_$_HandmadeMainWindowDelegate:
	.long	0                       ## 0x0
	.long	8                       ## 0x8
	.long	8                       ## 0x8
	.space	4
	.quad	0
	.quad	L_OBJC_CLASS_NAME_
	.quad	l_OBJC_$_INSTANCE_METHODS_HandmadeMainWindowDelegate
	.quad	l_OBJC_CLASS_PROTOCOLS_$_HandmadeMainWindowDelegate
	.quad	0
	.quad	0
	.quad	l_OBJC_$_PROP_LIST_HandmadeMainWindowDelegate

	.section	__DATA,__objc_data
	.globl	_OBJC_CLASS_$_HandmadeMainWindowDelegate ## @"OBJC_CLASS_$_HandmadeMainWindowDelegate"
	.p2align	3
_OBJC_CLASS_$_HandmadeMainWindowDelegate:
	.quad	_OBJC_METACLASS_$_HandmadeMainWindowDelegate
	.quad	_OBJC_CLASS_$_NSObject
	.quad	__objc_empty_cache
	.quad	0
	.quad	l_OBJC_CLASS_RO_$_HandmadeMainWindowDelegate

	.section	__TEXT,__objc_classname,cstring_literals
L_OBJC_CLASS_NAME_.125:                 ## @OBJC_CLASS_NAME_.125
	.asciz	"HandmadeKeyIgnoringWindow"

	.section	__DATA,__objc_const
	.p2align	3               ## @"\01l_OBJC_METACLASS_RO_$_HandmadeKeyIgnoringWindow"
l_OBJC_METACLASS_RO_$_HandmadeKeyIgnoringWindow:
	.long	1                       ## 0x1
	.long	40                      ## 0x28
	.long	40                      ## 0x28
	.space	4
	.quad	0
	.quad	L_OBJC_CLASS_NAME_.125
	.quad	0
	.quad	0
	.quad	0
	.quad	0
	.quad	0

	.section	__DATA,__objc_data
	.globl	_OBJC_METACLASS_$_HandmadeKeyIgnoringWindow ## @"OBJC_METACLASS_$_HandmadeKeyIgnoringWindow"
	.p2align	3
_OBJC_METACLASS_$_HandmadeKeyIgnoringWindow:
	.quad	_OBJC_METACLASS_$_NSObject
	.quad	_OBJC_METACLASS_$_NSWindow
	.quad	__objc_empty_cache
	.quad	0
	.quad	l_OBJC_METACLASS_RO_$_HandmadeKeyIgnoringWindow

	.section	__TEXT,__objc_methname,cstring_literals
L_OBJC_METH_VAR_NAME_.126:              ## @OBJC_METH_VAR_NAME_.126
	.asciz	"keyDown:"

	.section	__DATA,__objc_const
	.p2align	3               ## @"\01l_OBJC_$_INSTANCE_METHODS_HandmadeKeyIgnoringWindow"
l_OBJC_$_INSTANCE_METHODS_HandmadeKeyIgnoringWindow:
	.long	24                      ## 0x18
	.long	1                       ## 0x1
	.quad	L_OBJC_METH_VAR_NAME_.126
	.quad	L_OBJC_METH_VAR_TYPE_.66
	.quad	"-[HandmadeKeyIgnoringWindow keyDown:]"

	.p2align	3               ## @"\01l_OBJC_CLASS_RO_$_HandmadeKeyIgnoringWindow"
l_OBJC_CLASS_RO_$_HandmadeKeyIgnoringWindow:
	.long	0                       ## 0x0
	.long	256                     ## 0x100
	.long	256                     ## 0x100
	.space	4
	.quad	0
	.quad	L_OBJC_CLASS_NAME_.125
	.quad	l_OBJC_$_INSTANCE_METHODS_HandmadeKeyIgnoringWindow
	.quad	0
	.quad	0
	.quad	0
	.quad	0

	.section	__DATA,__objc_data
	.globl	_OBJC_CLASS_$_HandmadeKeyIgnoringWindow ## @"OBJC_CLASS_$_HandmadeKeyIgnoringWindow"
	.p2align	3
_OBJC_CLASS_$_HandmadeKeyIgnoringWindow:
	.quad	_OBJC_METACLASS_$_HandmadeKeyIgnoringWindow
	.quad	_OBJC_CLASS_$_NSWindow
	.quad	__objc_empty_cache
	.quad	0
	.quad	l_OBJC_CLASS_RO_$_HandmadeKeyIgnoringWindow

	.section	__DATA,__objc_classlist,regular,no_dead_strip
	.p2align	3               ## @"OBJC_LABEL_CLASS_$"
L_OBJC_LABEL_CLASS_$:
	.quad	_OBJC_CLASS_$_HandmadeMainWindowDelegate
	.quad	_OBJC_CLASS_$_HandmadeKeyIgnoringWindow

	.no_dead_strip	l_OBJC_PROTOCOL_$_NSObject
	.no_dead_strip	l_OBJC_LABEL_PROTOCOL_$_NSObject
	.no_dead_strip	l_OBJC_PROTOCOL_$_NSWindowDelegate
	.no_dead_strip	l_OBJC_LABEL_PROTOCOL_$_NSWindowDelegate
	.section	__DATA,__objc_imageinfo,regular,no_dead_strip
L_OBJC_IMAGE_INFO:
	.long	0
	.long	64

	.file	85 "/Users/theodorebendixson1/AppDevelopment/Personal Projects/Handmade Game Tutorials OSX/Day7/build" "/Applications/Xcode.app/Contents/Developer/Platforms/MacOSX.platform/Developer/SDKs/MacOSX10.14.sdk/System/Library/Frameworks/Foundation.framework/Headers/NSNotification.h"
	.file	86 "/Users/theodorebendixson1/AppDevelopment/Personal Projects/Handmade Game Tutorials OSX/Day7/build" "/Applications/Xcode.app/Contents/Developer/Platforms/MacOSX.platform/Developer/SDKs/MacOSX10.14.sdk/System/Library/Frameworks/AppKit.framework/Headers/NSTrackingArea.h"
	.file	87 "/Users/theodorebendixson1/AppDevelopment/Personal Projects/Handmade Game Tutorials OSX/Day7/build" "/Applications/Xcode.app/Contents/Developer/Platforms/MacOSX.platform/Developer/SDKs/MacOSX10.14.sdk/System/Library/Frameworks/CoreGraphics.framework/Headers/CGEventTypes.h"